---
triple:          'arm64-apple-darwin'
binary-path:     '/Users/ersenkocak/Library/Developer/Xcode/DerivedData/Runner-bebfgwsgbxhwbogvaktzmfzonndv/Build/Intermediates.noindex/ArchiveIntermediates/Runner/IntermediateBuildFilesPath/UninstalledProducts/iphoneos/isar_flutter_libs.framework/isar_flutter_libs'
relocations:
  - { offsetInCU: 0x34, offset: 0x5B170, size: 0x8, addend: 0x0, symName: _isar_flutter_libsVersionString, symObjAddr: 0x0, symBinAddr: 0x1E7280, symSize: 0x0 }
  - { offsetInCU: 0x69, offset: 0x5B1A5, size: 0x8, addend: 0x0, symName: _isar_flutter_libsVersionNumber, symObjAddr: 0x30, symBinAddr: 0x1E72B0, symSize: 0x0 }
  - { offsetInCU: 0x27, offset: 0x5B1E2, size: 0x8, addend: 0x0, symName: '+[IsarFlutterLibsPlugin registerWithRegistrar:]', symObjAddr: 0x0, symBinAddr: 0x4000, symSize: 0xC }
  - { offsetInCU: 0x91, offset: 0x5B24C, size: 0x8, addend: 0x0, symName: '+[IsarFlutterLibsPlugin registerWithRegistrar:]', symObjAddr: 0x0, symBinAddr: 0x4000, symSize: 0xC }
  - { offsetInCU: 0x27, offset: 0x5B2E0, size: 0x8, addend: 0x0, symName: '_$s17isar_flutter_libs26SwiftIsarFlutterLibsPluginC8register4withySo0fH9Registrar_p_tFZ', symObjAddr: 0x0, symBinAddr: 0x400C, symSize: 0x4 }
  - { offsetInCU: 0x67, offset: 0x5B320, size: 0x8, addend: 0x0, symName: '_$s17isar_flutter_libs26SwiftIsarFlutterLibsPluginC8register4withySo0fH9Registrar_p_tFZTo', symObjAddr: 0x4, symBinAddr: 0x4010, symSize: 0x4 }
  - { offsetInCU: 0xA3, offset: 0x5B35C, size: 0x8, addend: 0x0, symName: '_$s17isar_flutter_libs26SwiftIsarFlutterLibsPluginC6handle_6resultySo0F10MethodCallC_yypSgctFTo', symObjAddr: 0xC4, symBinAddr: 0x40D0, symSize: 0x134 }
  - { offsetInCU: 0x11E, offset: 0x5B3D7, size: 0x8, addend: 0x0, symName: '_$s17isar_flutter_libs26SwiftIsarFlutterLibsPluginCACycfcTo', symObjAddr: 0x270, symBinAddr: 0x427C, symSize: 0x3C }
  - { offsetInCU: 0x170, offset: 0x5B429, size: 0x8, addend: 0x0, symName: '_$sypSgWOh', symObjAddr: 0x44, symBinAddr: 0x4050, symSize: 0x40 }
  - { offsetInCU: 0x184, offset: 0x5B43D, size: 0x8, addend: 0x0, symName: ___swift_instantiateConcreteTypeFromMangledName, symObjAddr: 0x84, symBinAddr: 0x4090, symSize: 0x40 }
  - { offsetInCU: 0x1A3, offset: 0x5B45C, size: 0x8, addend: 0x0, symName: '_$s17isar_flutter_libs26SwiftIsarFlutterLibsPluginCMa', symObjAddr: 0x250, symBinAddr: 0x425C, symSize: 0x20 }
  - { offsetInCU: 0x1B7, offset: 0x5B470, size: 0x8, addend: 0x0, symName: '_$sypSgWOc', symObjAddr: 0x2DC, symBinAddr: 0x42E8, symSize: 0x48 }
  - { offsetInCU: 0x1CB, offset: 0x5B484, size: 0x8, addend: 0x0, symName: ___swift_project_boxed_opaque_existential_0, symObjAddr: 0x324, symBinAddr: 0x4330, symSize: 0x24 }
  - { offsetInCU: 0x1DF, offset: 0x5B498, size: 0x8, addend: 0x0, symName: ___swift_destroy_boxed_opaque_existential_0, symObjAddr: 0x348, symBinAddr: 0x4354, symSize: 0x20 }
  - { offsetInCU: 0x2CE, offset: 0x5B587, size: 0x8, addend: 0x0, symName: '_$s17isar_flutter_libs26SwiftIsarFlutterLibsPluginC8register4withySo0fH9Registrar_p_tFZ', symObjAddr: 0x0, symBinAddr: 0x400C, symSize: 0x4 }
  - { offsetInCU: 0x307, offset: 0x5B5C0, size: 0x8, addend: 0x0, symName: '_$s17isar_flutter_libs26SwiftIsarFlutterLibsPluginC6handle_6resultySo0F10MethodCallC_yypSgctF', symObjAddr: 0x8, symBinAddr: 0x4014, symSize: 0x3C }
  - { offsetInCU: 0x36F, offset: 0x5B628, size: 0x8, addend: 0x0, symName: '_$s17isar_flutter_libs26SwiftIsarFlutterLibsPluginC28dummyMethodToEnforceBundlingyyF', symObjAddr: 0x1F8, symBinAddr: 0x4204, symSize: 0x8 }
  - { offsetInCU: 0x390, offset: 0x5B649, size: 0x8, addend: 0x0, symName: '_$s17isar_flutter_libs26SwiftIsarFlutterLibsPluginCACycfC', symObjAddr: 0x200, symBinAddr: 0x420C, symSize: 0x20 }
  - { offsetInCU: 0x3A4, offset: 0x5B65D, size: 0x8, addend: 0x0, symName: '_$s17isar_flutter_libs26SwiftIsarFlutterLibsPluginCACycfc', symObjAddr: 0x220, symBinAddr: 0x422C, symSize: 0x30 }
  - { offsetInCU: 0x3D5, offset: 0x5B68E, size: 0x8, addend: 0x0, symName: '_$s17isar_flutter_libs26SwiftIsarFlutterLibsPluginCfD', symObjAddr: 0x2AC, symBinAddr: 0x42B8, symSize: 0x30 }
  - { offsetInCU: 0x1F, offset: 0x5B6DB, size: 0x8, addend: 0x0, symName: __ZN5alloc7raw_vec17capacity_overflow17hef586106a90cad88E, symObjAddr: 0x29DB0, symBinAddr: 0x2D7B0, symSize: 0x3C }
  - { offsetInCU: 0x27, offset: 0x5B6E3, size: 0x8, addend: 0x0, symName: __ZN3std3sys6common12thread_local8os_local13destroy_value17hc9c4dccea865426fE, symObjAddr: 0x2B308, symBinAddr: 0x2EC44, symSize: 0xF0 }
  - { offsetInCU: 0x8B, offset: 0x5B747, size: 0x8, addend: 0x0, symName: '__ZN50_$LT$$RF$mut$u20$W$u20$as$u20$core..fmt..Write$GT$9write_str17h3eed2b622d99dc7dE', symObjAddr: 0x2A6B4, symBinAddr: 0x2DFF0, symSize: 0x74 }
  - { offsetInCU: 0x93, offset: 0x5B74F, size: 0x8, addend: 0x0, symName: '__ZN50_$LT$$RF$mut$u20$W$u20$as$u20$core..fmt..Write$GT$10write_char17hc6eef68edef143c4E', symObjAddr: 0x2A728, symBinAddr: 0x2E064, symSize: 0x1C }
  - { offsetInCU: 0x1B6, offset: 0x5B872, size: 0x8, addend: 0x0, symName: '__ZN50_$LT$$RF$mut$u20$W$u20$as$u20$core..fmt..Write$GT$10write_char17hc6eef68edef143c4E', symObjAddr: 0x2A728, symBinAddr: 0x2E064, symSize: 0x1C }
  - { offsetInCU: 0x1CA, offset: 0x5B886, size: 0x8, addend: 0x0, symName: '__ZN50_$LT$$RF$mut$u20$W$u20$as$u20$core..fmt..Write$GT$10write_char17hc6eef68edef143c4E', symObjAddr: 0x2A728, symBinAddr: 0x2E064, symSize: 0x1C }
  - { offsetInCU: 0x1D2, offset: 0x5B88E, size: 0x8, addend: 0x0, symName: '__ZN50_$LT$$RF$mut$u20$W$u20$as$u20$core..fmt..Write$GT$9write_fmt17hba9009c92b2ef92eE', symObjAddr: 0x2A744, symBinAddr: 0x2E080, symSize: 0x34 }
  - { offsetInCU: 0x203, offset: 0x5B8BF, size: 0x8, addend: 0x0, symName: '__ZN50_$LT$$RF$mut$u20$W$u20$as$u20$core..fmt..Write$GT$9write_fmt17hba9009c92b2ef92eE', symObjAddr: 0x2A744, symBinAddr: 0x2E080, symSize: 0x34 }
  - { offsetInCU: 0x20B, offset: 0x5B8C7, size: 0x8, addend: 0x0, symName: __ZN5alloc6string6String4push17hd6b2b9cf2f611479E.650, symObjAddr: 0x2A778, symBinAddr: 0x2E0B4, symSize: 0x138 }
  - { offsetInCU: 0x276, offset: 0x5B932, size: 0x8, addend: 0x0, symName: '__ZN42_$LT$$RF$T$u20$as$u20$core..fmt..Debug$GT$3fmt17h783d42d653979553E', symObjAddr: 0x2B0A0, symBinAddr: 0x2E9DC, symSize: 0xB8 }
  - { offsetInCU: 0x27E, offset: 0x5B93A, size: 0x8, addend: 0x0, symName: '__ZN42_$LT$$RF$T$u20$as$u20$core..fmt..Debug$GT$3fmt17he6232a3b25d1df02E', symObjAddr: 0x2B158, symBinAddr: 0x2EA94, symSize: 0x8 }
  - { offsetInCU: 0x479, offset: 0x5BB35, size: 0x8, addend: 0x0, symName: '__ZN42_$LT$$RF$T$u20$as$u20$core..fmt..Debug$GT$3fmt17he6232a3b25d1df02E', symObjAddr: 0x2B158, symBinAddr: 0x2EA94, symSize: 0x8 }
  - { offsetInCU: 0x481, offset: 0x5BB3D, size: 0x8, addend: 0x0, symName: '__ZN65_$LT$alloc..string..FromUtf8Error$u20$as$u20$core..fmt..Debug$GT$3fmt17heddae4021a0c5ff7E', symObjAddr: 0x2B160, symBinAddr: 0x2EA9C, symSize: 0xF4 }
  - { offsetInCU: 0x689, offset: 0x5BD45, size: 0x8, addend: 0x0, symName: '__ZN4core3ptr46drop_in_place$LT$alloc..vec..Vec$LT$u8$GT$$GT$17h95c9e1be0dc47ca6E', symObjAddr: 0x2A200, symBinAddr: 0x2DB3C, symSize: 0x14 }
  - { offsetInCU: 0x691, offset: 0x5BD4D, size: 0x8, addend: 0x0, symName: '__ZN5alloc7raw_vec19RawVec$LT$T$C$A$GT$16reserve_for_push17hd69c1aa24dcd3d91E', symObjAddr: 0x2A214, symBinAddr: 0x2DB50, symSize: 0xB8 }
  - { offsetInCU: 0xCD3, offset: 0x5C38F, size: 0x8, addend: 0x0, symName: __ZN5alloc7raw_vec17capacity_overflow17hef586106a90cad88E, symObjAddr: 0x29DB0, symBinAddr: 0x2D7B0, symSize: 0x3C }
  - { offsetInCU: 0xCDB, offset: 0x5C397, size: 0x8, addend: 0x0, symName: __ZN5alloc5alloc18handle_alloc_error17h7fb7274c0a0da3c6E, symObjAddr: 0x29DEC, symBinAddr: 0x1D0E0C, symSize: 0xC }
  - { offsetInCU: 0xDC5, offset: 0x5C481, size: 0x8, addend: 0x0, symName: '__ZN5alloc7raw_vec19RawVec$LT$T$C$A$GT$16reserve_for_push17hd69c1aa24dcd3d91E', symObjAddr: 0x2A214, symBinAddr: 0x2DB50, symSize: 0xB8 }
  - { offsetInCU: 0xDCD, offset: 0x5C489, size: 0x8, addend: 0x0, symName: __ZN5alloc6string6String15from_utf8_lossy17hfeb57b6ab5c4dd39E, symObjAddr: 0x2A2CC, symBinAddr: 0x2DC08, symSize: 0x248 }
  - { offsetInCU: 0xFDF, offset: 0x5C69B, size: 0x8, addend: 0x0, symName: '__ZN5alloc7raw_vec19RawVec$LT$T$C$A$GT$7reserve21do_reserve_and_handle17hc54ff527e0eec806E', symObjAddr: 0x29E10, symBinAddr: 0x1D0E18, symSize: 0xB8 }
  - { offsetInCU: 0xFE7, offset: 0x5C6A3, size: 0x8, addend: 0x0, symName: __ZN5alloc7raw_vec11finish_grow17h98137e08230354f9E, symObjAddr: 0x29EC8, symBinAddr: 0x2D804, symSize: 0x8C }
  - { offsetInCU: 0x115F, offset: 0x5C81B, size: 0x8, addend: 0x0, symName: __ZN5alloc7raw_vec11finish_grow17h98137e08230354f9E, symObjAddr: 0x29EC8, symBinAddr: 0x2D804, symSize: 0x8C }
  - { offsetInCU: 0x1167, offset: 0x5C823, size: 0x8, addend: 0x0, symName: '__ZN72_$LT$$RF$str$u20$as$u20$alloc..ffi..c_str..CString..new..SpecNewImpl$GT$13spec_new_impl17he43dc98bbbe6c95bE', symObjAddr: 0x29F54, symBinAddr: 0x2D890, symSize: 0x2AC }
  - { offsetInCU: 0x1253, offset: 0x5C90F, size: 0x8, addend: 0x0, symName: __ZN5alloc5alloc18handle_alloc_error17h7fb7274c0a0da3c6E, symObjAddr: 0x29DEC, symBinAddr: 0x1D0E0C, symSize: 0xC }
  - { offsetInCU: 0x125B, offset: 0x5C917, size: 0x8, addend: 0x0, symName: __ZN5alloc5alloc18handle_alloc_error8rt_error17he53236d9033fec2cE, symObjAddr: 0x29DF8, symBinAddr: 0x2D7EC, symSize: 0x18 }
  - { offsetInCU: 0x127B, offset: 0x5C937, size: 0x8, addend: 0x0, symName: __ZN5alloc5alloc18handle_alloc_error8rt_error17he53236d9033fec2cE, symObjAddr: 0x29DF8, symBinAddr: 0x2D7EC, symSize: 0x18 }
  - { offsetInCU: 0x1283, offset: 0x5C93F, size: 0x8, addend: 0x0, symName: '__ZN5alloc7raw_vec19RawVec$LT$T$C$A$GT$7reserve21do_reserve_and_handle17hc54ff527e0eec806E', symObjAddr: 0x29E10, symBinAddr: 0x1D0E18, symSize: 0xB8 }
  - { offsetInCU: 0x1368, offset: 0x5CA24, size: 0x8, addend: 0x0, symName: '__ZN72_$LT$$RF$str$u20$as$u20$alloc..ffi..c_str..CString..new..SpecNewImpl$GT$13spec_new_impl17he43dc98bbbe6c95bE', symObjAddr: 0x29F54, symBinAddr: 0x2D890, symSize: 0x2AC }
  - { offsetInCU: 0x1370, offset: 0x5CA2C, size: 0x8, addend: 0x0, symName: '__ZN4core3ptr46drop_in_place$LT$alloc..vec..Vec$LT$u8$GT$$GT$17h95c9e1be0dc47ca6E', symObjAddr: 0x2A200, symBinAddr: 0x2DB3C, symSize: 0x14 }
  - { offsetInCU: 0x191F, offset: 0x5CFDB, size: 0x8, addend: 0x0, symName: '__ZN64_$LT$alloc..ffi..c_str..NulError$u20$as$u20$core..fmt..Debug$GT$3fmt17h3377865c2bbc1f65E', symObjAddr: 0x2AFA8, symBinAddr: 0x2E8E4, symSize: 0xF8 }
  - { offsetInCU: 0x1927, offset: 0x5CFE3, size: 0x8, addend: 0x0, symName: '__ZN42_$LT$$RF$T$u20$as$u20$core..fmt..Debug$GT$3fmt17h783d42d653979553E', symObjAddr: 0x2B0A0, symBinAddr: 0x2E9DC, symSize: 0xB8 }
  - { offsetInCU: 0x1BD7, offset: 0x5D293, size: 0x8, addend: 0x0, symName: '__ZN65_$LT$alloc..vec..Vec$LT$T$C$A$GT$$u20$as$u20$core..fmt..Debug$GT$3fmt17h89be41aeea4a1eedE', symObjAddr: 0x2B254, symBinAddr: 0x2EB90, symSize: 0xB4 }
  - { offsetInCU: 0x1BDF, offset: 0x5D29B, size: 0x8, addend: 0x0, symName: __ZN3std3sys6common12thread_local8os_local13destroy_value17hc9c4dccea865426fE, symObjAddr: 0x2B308, symBinAddr: 0x2EC44, symSize: 0xF0 }
  - { offsetInCU: 0x1E10, offset: 0x5D4CC, size: 0x8, addend: 0x0, symName: __ZN5alloc6string6String15from_utf8_lossy17hfeb57b6ab5c4dd39E, symObjAddr: 0x2A2CC, symBinAddr: 0x2DC08, symSize: 0x248 }
  - { offsetInCU: 0x1E18, offset: 0x5D4D4, size: 0x8, addend: 0x0, symName: __ZN5alloc3fmt6format12format_inner17h08c754a1a93d67f4E, symObjAddr: 0x2A514, symBinAddr: 0x2DE50, symSize: 0x1A0 }
  - { offsetInCU: 0x2478, offset: 0x5DB34, size: 0x8, addend: 0x0, symName: __ZN5alloc6string6String4push17hd6b2b9cf2f611479E.650, symObjAddr: 0x2A778, symBinAddr: 0x2E0B4, symSize: 0x138 }
  - { offsetInCU: 0x2480, offset: 0x5DB3C, size: 0x8, addend: 0x0, symName: '__ZN5alloc3str21_$LT$impl$u20$str$GT$12to_lowercase17h103682a9ec8ca15cE', symObjAddr: 0x2A8B0, symBinAddr: 0x2E1EC, symSize: 0x63C }
  - { offsetInCU: 0x266C, offset: 0x5DD28, size: 0x8, addend: 0x0, symName: '__ZN5alloc3str21_$LT$impl$u20$str$GT$12to_lowercase17h103682a9ec8ca15cE', symObjAddr: 0x2A8B0, symBinAddr: 0x2E1EC, symSize: 0x63C }
  - { offsetInCU: 0x26D7, offset: 0x5DD93, size: 0x8, addend: 0x0, symName: '__ZN60_$LT$alloc..string..String$u20$as$u20$core..clone..Clone$GT$5clone17h00019a9e3f242d13E', symObjAddr: 0x2AEEC, symBinAddr: 0x2E828, symSize: 0xBC }
  - { offsetInCU: 0x26DF, offset: 0x5DD9B, size: 0x8, addend: 0x0, symName: '__ZN64_$LT$alloc..ffi..c_str..NulError$u20$as$u20$core..fmt..Debug$GT$3fmt17h3377865c2bbc1f65E', symObjAddr: 0x2AFA8, symBinAddr: 0x2E8E4, symSize: 0xF8 }
  - { offsetInCU: 0x2898, offset: 0x5DF54, size: 0x8, addend: 0x0, symName: '__ZN65_$LT$alloc..string..FromUtf8Error$u20$as$u20$core..fmt..Debug$GT$3fmt17heddae4021a0c5ff7E', symObjAddr: 0x2B160, symBinAddr: 0x2EA9C, symSize: 0xF4 }
  - { offsetInCU: 0x28A0, offset: 0x5DF5C, size: 0x8, addend: 0x0, symName: '__ZN65_$LT$alloc..vec..Vec$LT$T$C$A$GT$$u20$as$u20$core..fmt..Debug$GT$3fmt17h89be41aeea4a1eedE', symObjAddr: 0x2B254, symBinAddr: 0x2EB90, symSize: 0xB4 }
  - { offsetInCU: 0x29E0, offset: 0x5E09C, size: 0x8, addend: 0x0, symName: __ZN5alloc3fmt6format12format_inner17h08c754a1a93d67f4E, symObjAddr: 0x2A514, symBinAddr: 0x2DE50, symSize: 0x1A0 }
  - { offsetInCU: 0x29E8, offset: 0x5E0A4, size: 0x8, addend: 0x0, symName: '__ZN50_$LT$$RF$mut$u20$W$u20$as$u20$core..fmt..Write$GT$9write_str17h3eed2b622d99dc7dE', symObjAddr: 0x2A6B4, symBinAddr: 0x2DFF0, symSize: 0x74 }
  - { offsetInCU: 0x2C88, offset: 0x5E344, size: 0x8, addend: 0x0, symName: '__ZN5alloc3str21_$LT$impl$u20$str$GT$12to_lowercase17h103682a9ec8ca15cE', symObjAddr: 0x2A8B0, symBinAddr: 0x2E1EC, symSize: 0x63C }
  - { offsetInCU: 0x2C90, offset: 0x5E34C, size: 0x8, addend: 0x0, symName: '__ZN60_$LT$alloc..string..String$u20$as$u20$core..clone..Clone$GT$5clone17h00019a9e3f242d13E', symObjAddr: 0x2AEEC, symBinAddr: 0x2E828, symSize: 0xBC }
  - { offsetInCU: 0x1F, offset: 0x5EFD1, size: 0x8, addend: 0x0, symName: _rust_eh_personality, symObjAddr: 0x779D4, symBinAddr: 0x784E8, symSize: 0x2EC }
  - { offsetInCU: 0x27, offset: 0x5EFD9, size: 0x8, addend: 0x0, symName: __ZN11xxhash_rust4xxh316xxh3_64_internal17h6d8fab8278ee9952E, symObjAddr: 0x9A9B8, symBinAddr: 0x98B34, symSize: 0x404 }
  - { offsetInCU: 0x154, offset: 0x5F106, size: 0x8, addend: 0x0, symName: __ZN3std3sys4unix14abort_internal17h9b85a85c9e12d595E, symObjAddr: 0x77F2C, symBinAddr: 0x78A40, symSize: 0xC }
  - { offsetInCU: 0x15C, offset: 0x5F10E, size: 0x8, addend: 0x0, symName: '__ZN72_$LT$alloc..boxed..Box$LT$T$C$A$GT$$u20$as$u20$core..ops..drop..Drop$GT$4drop17h03b51f5e83a752bdE', symObjAddr: 0x77F38, symBinAddr: 0x78A4C, symSize: 0xC }
  - { offsetInCU: 0x38F, offset: 0x5F341, size: 0x8, addend: 0x0, symName: __ZN3std3sys4unix5locks14pthread_rwlock6RwLock4read17h3053437a3b1141b2E, symObjAddr: 0x9505C, symBinAddr: 0x93770, symSize: 0x120 }
  - { offsetInCU: 0x397, offset: 0x5F349, size: 0x8, addend: 0x0, symName: '__ZN3std10sys_common8lazy_box16LazyBox$LT$T$GT$10initialize17h0b4fa1613209d73cE', symObjAddr: 0x9517C, symBinAddr: 0x1D60F8, symSize: 0x128 }
  - { offsetInCU: 0x54B, offset: 0x5F4FD, size: 0x8, addend: 0x0, symName: '__ZN68_$LT$std..sys..unix..os_str..Slice$u20$as$u20$core..fmt..Display$GT$3fmt17h1a24031b789ce775E', symObjAddr: 0x7A620, symBinAddr: 0x7A9A0, symSize: 0xCC }
  - { offsetInCU: 0x553, offset: 0x5F505, size: 0x8, addend: 0x0, symName: '__ZN80_$LT$std..path..Components$u20$as$u20$core..iter..traits..iterator..Iterator$GT$4next17h65c107562b29fef2E', symObjAddr: 0x7A6EC, symBinAddr: 0x7AA6C, symSize: 0x370 }
  - { offsetInCU: 0x6BA, offset: 0x5F66C, size: 0x8, addend: 0x0, symName: __ZN3std3sys4unix2fs4File6open_c17hfc9ef4aa7ba3e767E, symObjAddr: 0x94DC8, symBinAddr: 0x934DC, symSize: 0x174 }
  - { offsetInCU: 0x6C2, offset: 0x5F674, size: 0x8, addend: 0x0, symName: __ZN3std12backtrace_rs9symbolize6Symbol4name17h55245cee00b9b303E, symObjAddr: 0x94F3C, symBinAddr: 0x93650, symSize: 0xE4 }
  - { offsetInCU: 0x7FA, offset: 0x5F7AC, size: 0x8, addend: 0x0, symName: __ZN3std3sys4unix2fs7readdir17h649b19a574058fd6E, symObjAddr: 0x7FB24, symBinAddr: 0x7FCC8, symSize: 0x27C }
  - { offsetInCU: 0x802, offset: 0x5F7B4, size: 0x8, addend: 0x0, symName: '__ZN4core3ptr89drop_in_place$LT$core..result..Result$LT$std..fs..ReadDir$C$std..io..error..Error$GT$$GT$17h994d72ac1758d9f9E', symObjAddr: 0x7FDA0, symBinAddr: 0x7FF44, symSize: 0xD0 }
  - { offsetInCU: 0xD16, offset: 0x5FCC8, size: 0x8, addend: 0x0, symName: '__ZN86_$LT$std..sys..unix..fs..ReadDir$u20$as$u20$core..iter..traits..iterator..Iterator$GT$4next17h958cca7cf5001308E', symObjAddr: 0x7FE70, symBinAddr: 0x80014, symSize: 0x144 }
  - { offsetInCU: 0xD1E, offset: 0x5FCD0, size: 0x8, addend: 0x0, symName: '__ZN4core3ptr37drop_in_place$LT$std..fs..ReadDir$GT$17h5613ff196b44d240E', symObjAddr: 0x7FFB4, symBinAddr: 0x80158, symSize: 0x28 }
  - { offsetInCU: 0xF5F, offset: 0x5FF11, size: 0x8, addend: 0x0, symName: '__ZN65_$LT$std..sys..unix..fs..Dir$u20$as$u20$core..ops..drop..Drop$GT$4drop17hbf0f3774f7446416E', symObjAddr: 0x8B830, symBinAddr: 0x8B8F4, symSize: 0xA4 }
  - { offsetInCU: 0xF67, offset: 0x5FF19, size: 0x8, addend: 0x0, symName: __ZN3std3sys6common14small_c_string24run_with_cstr_allocating17hd89cfc5838a44265E, symObjAddr: 0x8B8D4, symBinAddr: 0x1D4748, symSize: 0x8C }
  - { offsetInCU: 0x1084, offset: 0x60036, size: 0x8, addend: 0x0, symName: __ZN3std3sys4unix2fs6unlink17h9276c24154b85bfdE, symObjAddr: 0x99FCC, symBinAddr: 0x984A4, symSize: 0x198 }
  - { offsetInCU: 0x108C, offset: 0x6003E, size: 0x8, addend: 0x0, symName: __ZN3std3sys6common14small_c_string24run_with_cstr_allocating17hf2388addfc429acaE, symObjAddr: 0x9A164, symBinAddr: 0x1D6334, symSize: 0x9C }
  - { offsetInCU: 0x1327, offset: 0x602D9, size: 0x8, addend: 0x0, symName: __ZN3std3sys4unix2fs6rename17hdac23e279741470fE, symObjAddr: 0x9A200, symBinAddr: 0x9863C, symSize: 0x2E8 }
  - { offsetInCU: 0x132F, offset: 0x602E1, size: 0x8, addend: 0x0, symName: __ZN3std3sys6common14small_c_string24run_with_cstr_allocating17h00c7f1a19b86fa7dE, symObjAddr: 0x9A4E8, symBinAddr: 0x1D63D0, symSize: 0x21C }
  - { offsetInCU: 0x1756, offset: 0x60708, size: 0x8, addend: 0x0, symName: __ZN3std3sys4unix2fs4stat17hf19afe962f31b3e8E, symObjAddr: 0x9A7A8, symBinAddr: 0x98924, symSize: 0x1E8 }
  - { offsetInCU: 0x175E, offset: 0x60710, size: 0x8, addend: 0x0, symName: __ZN3std5alloc8rust_oom17h3b9feb18fc412b6fE, symObjAddr: 0x9A990, symBinAddr: 0x98B0C, symSize: 0x10 }
  - { offsetInCU: 0x1A96, offset: 0x60A48, size: 0x8, addend: 0x0, symName: _rust_eh_personality, symObjAddr: 0x779D4, symBinAddr: 0x784E8, symSize: 0x2EC }
  - { offsetInCU: 0x1A9E, offset: 0x60A50, size: 0x8, addend: 0x0, symName: __ZN3std10sys_common16thread_local_key9StaticKey9lazy_init17h2aa74aa5bbe169feE, symObjAddr: 0x77CC0, symBinAddr: 0x787D4, symSize: 0xF4 }
  - { offsetInCU: 0x1C71, offset: 0x60C23, size: 0x8, addend: 0x0, symName: '__ZN3std3sys11personality3gcc14find_eh_action28_$u7b$$u7b$closure$u7d$$u7d$17h8c0767e50b9009fcE', symObjAddr: 0x78764, symBinAddr: 0x79240, symSize: 0xC }
  - { offsetInCU: 0x1C79, offset: 0x60C2B, size: 0x8, addend: 0x0, symName: '__ZN4core3ops8function6FnOnce40call_once$u7b$$u7b$vtable.shim$u7d$$u7d$17h6b44f67e48cc220eE', symObjAddr: 0x78770, symBinAddr: 0x7924C, symSize: 0xC }
  - { offsetInCU: 0x1C99, offset: 0x60C4B, size: 0x8, addend: 0x0, symName: '__ZN3std3sys11personality3gcc14find_eh_action28_$u7b$$u7b$closure$u7d$$u7d$17hffe6f4adaa5dd51bE', symObjAddr: 0x7877C, symBinAddr: 0x79258, symSize: 0xC }
  - { offsetInCU: 0x1CA1, offset: 0x60C53, size: 0x8, addend: 0x0, symName: '__ZN5alloc4sync16Arc$LT$T$C$A$GT$9drop_slow17he0278811facb347dE', symObjAddr: 0x78788, symBinAddr: 0x79264, symSize: 0x70 }
  - { offsetInCU: 0x1CEA, offset: 0x60C9C, size: 0x8, addend: 0x0, symName: __ZN3std3sys11personality5dwarf2eh20read_encoded_pointer17h44a5c9b0e7ca6a3dE, symObjAddr: 0x785C0, symBinAddr: 0x7909C, symSize: 0x198 }
  - { offsetInCU: 0x1CF2, offset: 0x60CA4, size: 0x8, addend: 0x0, symName: '__ZN4core3ops8function6FnOnce40call_once$u7b$$u7b$vtable.shim$u7d$$u7d$17h2c2fb2ab13084832E', symObjAddr: 0x78758, symBinAddr: 0x79234, symSize: 0xC }
  - { offsetInCU: 0x1F12, offset: 0x60EC4, size: 0x8, addend: 0x0, symName: __ZN3std3sys6common12thread_local8os_local13destroy_value17h642bb1b28ac7a76bE, symObjAddr: 0x78428, symBinAddr: 0x78F3C, symSize: 0x64 }
  - { offsetInCU: 0x1F1A, offset: 0x60ECC, size: 0x8, addend: 0x0, symName: __ZN4core9panicking13assert_failed17h92b5a7129e0a3878E, symObjAddr: 0x7848C, symBinAddr: 0x1D3CF8, symSize: 0x38 }
  - { offsetInCU: 0x1F3D, offset: 0x60EEF, size: 0x8, addend: 0x0, symName: __ZN4core9panicking13assert_failed17h92b5a7129e0a3878E, symObjAddr: 0x7848C, symBinAddr: 0x1D3CF8, symSize: 0x38 }
  - { offsetInCU: 0x1F56, offset: 0x60F08, size: 0x8, addend: 0x0, symName: __ZN4core9panicking13assert_failed17h92b5a7129e0a3878E, symObjAddr: 0x7848C, symBinAddr: 0x1D3CF8, symSize: 0x38 }
  - { offsetInCU: 0x215C, offset: 0x6110E, size: 0x8, addend: 0x0, symName: __ZN3std3sys6common12thread_local8os_local13destroy_value17h1944e57eaa37dd89E, symObjAddr: 0x790EC, symBinAddr: 0x796EC, symSize: 0xA8 }
  - { offsetInCU: 0x2164, offset: 0x61116, size: 0x8, addend: 0x0, symName: '__ZN4core3ptr196drop_in_place$LT$alloc..boxed..Box$LT$std..sys..common..thread_local..os_local..Value$LT$core..cell..RefCell$LT$core..option..Option$LT$std..sys_common..thread_info..ThreadInfo$GT$$GT$$GT$$GT$$GT$17h80eb23f15a9c7d74E', symObjAddr: 0x79194, symBinAddr: 0x79794, symSize: 0x5C }
  - { offsetInCU: 0x2187, offset: 0x61139, size: 0x8, addend: 0x0, symName: '__ZN4core3ptr196drop_in_place$LT$alloc..boxed..Box$LT$std..sys..common..thread_local..os_local..Value$LT$core..cell..RefCell$LT$core..option..Option$LT$std..sys_common..thread_info..ThreadInfo$GT$$GT$$GT$$GT$$GT$17h80eb23f15a9c7d74E', symObjAddr: 0x79194, symBinAddr: 0x79794, symSize: 0x5C }
  - { offsetInCU: 0x21A0, offset: 0x61152, size: 0x8, addend: 0x0, symName: '__ZN4core3ptr196drop_in_place$LT$alloc..boxed..Box$LT$std..sys..common..thread_local..os_local..Value$LT$core..cell..RefCell$LT$core..option..Option$LT$std..sys_common..thread_info..ThreadInfo$GT$$GT$$GT$$GT$$GT$17h80eb23f15a9c7d74E', symObjAddr: 0x79194, symBinAddr: 0x79794, symSize: 0x5C }
  - { offsetInCU: 0x263D, offset: 0x615EF, size: 0x8, addend: 0x0, symName: __ZN3std3sys6common14small_c_string24run_with_cstr_allocating17hd89cfc5838a44265E, symObjAddr: 0x8B8D4, symBinAddr: 0x1D4748, symSize: 0x8C }
  - { offsetInCU: 0x2645, offset: 0x615F7, size: 0x8, addend: 0x0, symName: '__ZN4core3ptr82drop_in_place$LT$alloc..sync..ArcInner$LT$std..sys..unix..fs..InnerReadDir$GT$$GT$17hf7dd87cc01488943E', symObjAddr: 0x8B960, symBinAddr: 0x8B998, symSize: 0x50 }
  - { offsetInCU: 0x273A, offset: 0x616EC, size: 0x8, addend: 0x0, symName: '__ZN4core3ptr82drop_in_place$LT$alloc..sync..ArcInner$LT$std..sys..unix..fs..InnerReadDir$GT$$GT$17hf7dd87cc01488943E', symObjAddr: 0x8B960, symBinAddr: 0x8B998, symSize: 0x50 }
  - { offsetInCU: 0x276D, offset: 0x6171F, size: 0x8, addend: 0x0, symName: '__ZN4core3ptr82drop_in_place$LT$alloc..sync..ArcInner$LT$std..sys..unix..fs..InnerReadDir$GT$$GT$17hf7dd87cc01488943E', symObjAddr: 0x8B960, symBinAddr: 0x8B998, symSize: 0x50 }
  - { offsetInCU: 0x2787, offset: 0x61739, size: 0x8, addend: 0x0, symName: '__ZN4core3ptr82drop_in_place$LT$alloc..sync..ArcInner$LT$std..sys..unix..fs..InnerReadDir$GT$$GT$17hf7dd87cc01488943E', symObjAddr: 0x8B960, symBinAddr: 0x8B998, symSize: 0x50 }
  - { offsetInCU: 0x2798, offset: 0x6174A, size: 0x8, addend: 0x0, symName: __ZN3std3sys6common14small_c_string24run_with_cstr_allocating17hb11e6bb24e18c519E, symObjAddr: 0x94D38, symBinAddr: 0x1D6068, symSize: 0x90 }
  - { offsetInCU: 0x27A0, offset: 0x61752, size: 0x8, addend: 0x0, symName: __ZN3std3sys4unix2fs4File6open_c17hfc9ef4aa7ba3e767E, symObjAddr: 0x94DC8, symBinAddr: 0x934DC, symSize: 0x174 }
  - { offsetInCU: 0x28F3, offset: 0x618A5, size: 0x8, addend: 0x0, symName: __ZN3std3sys6common14small_c_string24run_with_cstr_allocating17hf7b60259cefba858E, symObjAddr: 0x9594C, symBinAddr: 0x1D6220, symSize: 0x108 }
  - { offsetInCU: 0x28FB, offset: 0x618AD, size: 0x8, addend: 0x0, symName: '__ZN5alloc4sync16Arc$LT$T$C$A$GT$9drop_slow17h89118e0a8fa36af5E', symObjAddr: 0x95A54, symBinAddr: 0x93F38, symSize: 0x98 }
  - { offsetInCU: 0x2B3B, offset: 0x61AED, size: 0x8, addend: 0x0, symName: __ZN3std3sys6common14small_c_string24run_with_cstr_allocating17hf2388addfc429acaE, symObjAddr: 0x9A164, symBinAddr: 0x1D6334, symSize: 0x9C }
  - { offsetInCU: 0x2B43, offset: 0x61AF5, size: 0x8, addend: 0x0, symName: __ZN3std3sys4unix2fs6rename17hdac23e279741470fE, symObjAddr: 0x9A200, symBinAddr: 0x9863C, symSize: 0x2E8 }
  - { offsetInCU: 0x2D0C, offset: 0x61CBE, size: 0x8, addend: 0x0, symName: __ZN3std3sys6common14small_c_string24run_with_cstr_allocating17h00c7f1a19b86fa7dE, symObjAddr: 0x9A4E8, symBinAddr: 0x1D63D0, symSize: 0x21C }
  - { offsetInCU: 0x2D14, offset: 0x61CC6, size: 0x8, addend: 0x0, symName: __ZN3std3sys6common14small_c_string24run_with_cstr_allocating17hf57ae67c7982fc6aE, symObjAddr: 0x9A704, symBinAddr: 0x1D65EC, symSize: 0xA4 }
  - { offsetInCU: 0x316C, offset: 0x6211E, size: 0x8, addend: 0x0, symName: __ZN3std3sys6common14small_c_string24run_with_cstr_allocating17hf57ae67c7982fc6aE, symObjAddr: 0x9A704, symBinAddr: 0x1D65EC, symSize: 0xA4 }
  - { offsetInCU: 0x3174, offset: 0x62126, size: 0x8, addend: 0x0, symName: __ZN3std3sys4unix2fs4stat17hf19afe962f31b3e8E, symObjAddr: 0x9A7A8, symBinAddr: 0x98924, symSize: 0x1E8 }
  - { offsetInCU: 0x3357, offset: 0x62309, size: 0x8, addend: 0x0, symName: __ZN3std5alloc24default_alloc_error_hook17h9bd87d36708bf1e8E, symObjAddr: 0x990FC, symBinAddr: 0x975D4, symSize: 0xD4 }
  - { offsetInCU: 0x335F, offset: 0x62311, size: 0x8, addend: 0x0, symName: '__ZN4core3ptr68drop_in_place$LT$core..option..Option$LT$std..thread..Thread$GT$$GT$17h50dba96b4bd2d7acE', symObjAddr: 0x991D0, symBinAddr: 0x976A8, symSize: 0x2C }
  - { offsetInCU: 0x3578, offset: 0x6252A, size: 0x8, addend: 0x0, symName: __ZN3std5alloc8rust_oom17h3b9feb18fc412b6fE, symObjAddr: 0x9A990, symBinAddr: 0x98B0C, symSize: 0x10 }
  - { offsetInCU: 0x3580, offset: 0x62532, size: 0x8, addend: 0x0, symName: ___rg_oom, symObjAddr: 0x9A9A0, symBinAddr: 0x98B1C, symSize: 0x18 }
  - { offsetInCU: 0x35A0, offset: 0x62552, size: 0x8, addend: 0x0, symName: ___rg_oom, symObjAddr: 0x9A9A0, symBinAddr: 0x98B1C, symSize: 0x18 }
  - { offsetInCU: 0x35A8, offset: 0x6255A, size: 0x8, addend: 0x0, symName: __ZN11xxhash_rust4xxh316xxh3_64_internal17h6d8fab8278ee9952E, symObjAddr: 0x9A9B8, symBinAddr: 0x98B34, symSize: 0x404 }
  - { offsetInCU: 0x35D2, offset: 0x62584, size: 0x8, addend: 0x0, symName: __ZN3std10sys_common16thread_local_key9StaticKey9lazy_init17h2aa74aa5bbe169feE, symObjAddr: 0x77CC0, symBinAddr: 0x787D4, symSize: 0xF4 }
  - { offsetInCU: 0x35DA, offset: 0x6258C, size: 0x8, addend: 0x0, symName: __ZN3std2io5Write9write_fmt17h74e0fa79bab3928bE, symObjAddr: 0x77DB4, symBinAddr: 0x788C8, symSize: 0xE0 }
  - { offsetInCU: 0x3760, offset: 0x62712, size: 0x8, addend: 0x0, symName: __ZN3std10sys_common4once5queue4Once4call17h3112c1e27045a9f2E, symObjAddr: 0x78930, symBinAddr: 0x1D3D30, symSize: 0x4DC }
  - { offsetInCU: 0x3768, offset: 0x6271A, size: 0x8, addend: 0x0, symName: '__ZN4core3ptr62drop_in_place$LT$std..sys_common..once..queue..WaiterQueue$GT$17h5c596356245e4efdE', symObjAddr: 0x78E0C, symBinAddr: 0x7940C, symSize: 0x4 }
  - { offsetInCU: 0x45AE, offset: 0x63560, size: 0x8, addend: 0x0, symName: '__ZN83_$LT$std..sys_common..once..queue..WaiterQueue$u20$as$u20$core..ops..drop..Drop$GT$4drop17hb0e81f9394c94eb6E', symObjAddr: 0x78E10, symBinAddr: 0x79410, symSize: 0xDC }
  - { offsetInCU: 0x45B6, offset: 0x63568, size: 0x8, addend: 0x0, symName: __ZN3std10sys_common11thread_info11THREAD_INFO7__getit17h93968ee570f011eaE, symObjAddr: 0x78EEC, symBinAddr: 0x794EC, symSize: 0x178 }
  - { offsetInCU: 0x48B8, offset: 0x6386A, size: 0x8, addend: 0x0, symName: __ZN3std10sys_common11thread_info11THREAD_INFO7__getit17h93968ee570f011eaE, symObjAddr: 0x78EEC, symBinAddr: 0x794EC, symSize: 0x178 }
  - { offsetInCU: 0x48C0, offset: 0x63872, size: 0x8, addend: 0x0, symName: '__ZN4core3ptr115drop_in_place$LT$core..cell..RefMut$LT$core..option..Option$LT$std..sys_common..thread_info..ThreadInfo$GT$$GT$$GT$17ha4d57188d26e0181E', symObjAddr: 0x79064, symBinAddr: 0x79664, symSize: 0x10 }
  - { offsetInCU: 0x4CC4, offset: 0x63C76, size: 0x8, addend: 0x0, symName: __ZN3std10sys_common11thread_info14current_thread17h52eab3add00e5baeE, symObjAddr: 0x79F3C, symBinAddr: 0x7A2BC, symSize: 0xC0 }
  - { offsetInCU: 0x4CCC, offset: 0x63C7E, size: 0x8, addend: 0x0, symName: '__ZN79_$LT$std..backtrace_rs..symbolize..SymbolName$u20$as$u20$core..fmt..Display$GT$3fmt17h6d87869188bef0f8E', symObjAddr: 0x79FFC, symBinAddr: 0x7A37C, symSize: 0x258 }
  - { offsetInCU: 0x4F89, offset: 0x63F3B, size: 0x8, addend: 0x0, symName: '__ZN3std10sys_common8lazy_box16LazyBox$LT$T$GT$10initialize17h27fb1df12d1208ddE', symObjAddr: 0x79454, symBinAddr: 0x1D4248, symSize: 0x208 }
  - { offsetInCU: 0x4F91, offset: 0x63F43, size: 0x8, addend: 0x0, symName: '__ZN4core3ptr73drop_in_place$LT$std..sys..unix..locks..pthread_mutex..AllocatedMutex$GT$17h1cf80ed7c12f89bcE', symObjAddr: 0x7965C, symBinAddr: 0x79A18, symSize: 0x4 }
  - { offsetInCU: 0x523A, offset: 0x641EC, size: 0x8, addend: 0x0, symName: '__ZN3std10sys_common8lazy_box16LazyBox$LT$T$GT$10initialize17h0b4fa1613209d73cE', symObjAddr: 0x9517C, symBinAddr: 0x1D60F8, symSize: 0x128 }
  - { offsetInCU: 0x5242, offset: 0x641F4, size: 0x8, addend: 0x0, symName: '__ZN4core3ptr71drop_in_place$LT$std..sync..rwlock..RwLockReadGuard$LT$$LP$$RP$$GT$$GT$17hde0e3de2b148ecf9E', symObjAddr: 0x952A4, symBinAddr: 0x93890, symSize: 0x3C }
  - { offsetInCU: 0x54A1, offset: 0x64453, size: 0x8, addend: 0x0, symName: __ZN3std10sys_common9backtrace15output_filename17hdb43e4d0883efd50E, symObjAddr: 0x7A254, symBinAddr: 0x7A5D4, symSize: 0x3AC }
  - { offsetInCU: 0x54A9, offset: 0x6445B, size: 0x8, addend: 0x0, symName: '__ZN4core3ptr50drop_in_place$LT$alloc..borrow..Cow$LT$str$GT$$GT$17h4bcd884bf6d5b583E', symObjAddr: 0x7A600, symBinAddr: 0x7A980, symSize: 0x10 }
  - { offsetInCU: 0x575A, offset: 0x6470C, size: 0x8, addend: 0x0, symName: '__ZN3std10sys_common9backtrace10_print_fmt28_$u7b$$u7b$closure$u7d$$u7d$17h9b000e0c380459e2E', symObjAddr: 0x95918, symBinAddr: 0x93F04, symSize: 0x20 }
  - { offsetInCU: 0x5762, offset: 0x64714, size: 0x8, addend: 0x0, symName: '__ZN60_$LT$alloc..string..String$u20$as$u20$core..fmt..Display$GT$3fmt17h34b5edf68021e711E.1367', symObjAddr: 0x95938, symBinAddr: 0x93F24, symSize: 0x14 }
  - { offsetInCU: 0x578D, offset: 0x6473F, size: 0x8, addend: 0x0, symName: '__ZN3std10sys_common9backtrace10_print_fmt28_$u7b$$u7b$closure$u7d$$u7d$17h6f1caa974962e5baE', symObjAddr: 0x96158, symBinAddr: 0x94630, symSize: 0x279C }
  - { offsetInCU: 0x5795, offset: 0x64747, size: 0x8, addend: 0x0, symName: '__ZN3std10sys_common9backtrace10_print_fmt28_$u7b$$u7b$closure$u7d$$u7d$28_$u7b$$u7b$closure$u7d$$u7d$17hdbd90216cd406e92E', symObjAddr: 0x988F4, symBinAddr: 0x96DCC, symSize: 0x25C }
  - { offsetInCU: 0x9E49, offset: 0x68DFB, size: 0x8, addend: 0x0, symName: '__ZN3std10sys_common9backtrace10_print_fmt28_$u7b$$u7b$closure$u7d$$u7d$28_$u7b$$u7b$closure$u7d$$u7d$17hdbd90216cd406e92E', symObjAddr: 0x988F4, symBinAddr: 0x96DCC, symSize: 0x25C }
  - { offsetInCU: 0x9E51, offset: 0x68E03, size: 0x8, addend: 0x0, symName: '__ZN55_$LT$$RF$str$u20$as$u20$core..str..pattern..Pattern$GT$15is_contained_in17h98130f7276e2d873E', symObjAddr: 0x98B50, symBinAddr: 0x97028, symSize: 0x514 }
  - { offsetInCU: 0xA0C1, offset: 0x69073, size: 0x8, addend: 0x0, symName: '__ZN91_$LT$std..sys_common..backtrace.._print..DisplayBacktrace$u20$as$u20$core..fmt..Display$GT$3fmt17h04dc643271d75407E', symObjAddr: 0x95E18, symBinAddr: 0x942F0, symSize: 0x31C }
  - { offsetInCU: 0xA0C9, offset: 0x6907B, size: 0x8, addend: 0x0, symName: '__ZN4core3ptr88drop_in_place$LT$std..sys_common..backtrace.._print_fmt..$u7b$$u7b$closure$u7d$$u7d$$GT$17h3b49838a19af8904E', symObjAddr: 0x96134, symBinAddr: 0x9460C, symSize: 0x20 }
  - { offsetInCU: 0xAA24, offset: 0x699D6, size: 0x8, addend: 0x0, symName: __ZN3std10sys_common9backtrace5print17h14c164d93e53e84aE, symObjAddr: 0x99538, symBinAddr: 0x97A10, symSize: 0x130 }
  - { offsetInCU: 0xAA2C, offset: 0x699DE, size: 0x8, addend: 0x0, symName: _rust_begin_unwind, symObjAddr: 0x99668, symBinAddr: 0x97B40, symSize: 0x40 }
  - { offsetInCU: 0xACE4, offset: 0x69C96, size: 0x8, addend: 0x0, symName: __ZN3std10sys_common9backtrace26__rust_end_short_backtrace17hf044a103f9a08a40E, symObjAddr: 0x996A8, symBinAddr: 0x97B80, symSize: 0xC }
  - { offsetInCU: 0xACEC, offset: 0x69C9E, size: 0x8, addend: 0x0, symName: '__ZN3std9panicking19begin_panic_handler28_$u7b$$u7b$closure$u7d$$u7d$17h96ce61eb29d6eca3E', symObjAddr: 0x996B4, symBinAddr: 0x97B8C, symSize: 0xA4 }
  - { offsetInCU: 0xAEA2, offset: 0x69E54, size: 0x8, addend: 0x0, symName: '__ZN58_$LT$std..io..error..Error$u20$as$u20$core..fmt..Debug$GT$3fmt17hbcff618564c44c20E', symObjAddr: 0x7971C, symBinAddr: 0x79AD8, symSize: 0x618 }
  - { offsetInCU: 0xAEAA, offset: 0x69E5C, size: 0x8, addend: 0x0, symName: '__ZN4core3ptr42drop_in_place$LT$alloc..string..String$GT$17h33c1b27dee0fa191E', symObjAddr: 0x79D34, symBinAddr: 0x7A0F0, symSize: 0x14 }
  - { offsetInCU: 0xB580, offset: 0x6A532, size: 0x8, addend: 0x0, symName: '__ZN62_$LT$std..io..error..ErrorKind$u20$as$u20$core..fmt..Debug$GT$3fmt17h2a1395b5c37417e6E', symObjAddr: 0x79D70, symBinAddr: 0x7A12C, symSize: 0x30 }
  - { offsetInCU: 0xB588, offset: 0x6A53A, size: 0x8, addend: 0x0, symName: '__ZN4core3fmt3num50_$LT$impl$u20$core..fmt..Debug$u20$for$u20$i32$GT$3fmt17h01b68edfbe8e866dE.1357', symObjAddr: 0x79DA0, symBinAddr: 0x7A15C, symSize: 0xF8 }
  - { offsetInCU: 0xB5B1, offset: 0x6A563, size: 0x8, addend: 0x0, symName: '__ZN4core3fmt3num50_$LT$impl$u20$core..fmt..Debug$u20$for$u20$i32$GT$3fmt17h01b68edfbe8e866dE.1357', symObjAddr: 0x79DA0, symBinAddr: 0x7A15C, symSize: 0xF8 }
  - { offsetInCU: 0xB5C7, offset: 0x6A579, size: 0x8, addend: 0x0, symName: __ZN3std2io5Write9write_fmt17h74e0fa79bab3928bE, symObjAddr: 0x77DB4, symBinAddr: 0x788C8, symSize: 0xE0 }
  - { offsetInCU: 0xB5CF, offset: 0x6A581, size: 0x8, addend: 0x0, symName: '__ZN4core3ptr81drop_in_place$LT$core..result..Result$LT$$LP$$RP$$C$std..io..error..Error$GT$$GT$17h860add9c6ecdcb6dE', symObjAddr: 0x77E94, symBinAddr: 0x789A8, symSize: 0x98 }
  - { offsetInCU: 0xB7CF, offset: 0x6A781, size: 0x8, addend: 0x0, symName: '__ZN80_$LT$std..io..Write..write_fmt..Adapter$LT$T$GT$$u20$as$u20$core..fmt..Write$GT$9write_str17hd8f7c2e11acfabe7E', symObjAddr: 0x77FDC, symBinAddr: 0x78AF0, symSize: 0x134 }
  - { offsetInCU: 0xB7D7, offset: 0x6A789, size: 0x8, addend: 0x0, symName: __ZN4core3fmt5Write10write_char17he9557dfdd4ea678bE, symObjAddr: 0x78110, symBinAddr: 0x78C24, symSize: 0xC8 }
  - { offsetInCU: 0xBB32, offset: 0x6AAE4, size: 0x8, addend: 0x0, symName: __ZN3std9panicking11panic_count17LOCAL_PANIC_COUNT7__getit17h24426122b4a1f372E, symObjAddr: 0x78314, symBinAddr: 0x78E28, symSize: 0xF8 }
  - { offsetInCU: 0xBB3A, offset: 0x6AAEC, size: 0x8, addend: 0x0, symName: '__ZN4core3ptr29drop_in_place$LT$$LP$$RP$$GT$17h1cf6e88cafb253b9E', symObjAddr: 0x7840C, symBinAddr: 0x78F20, symSize: 0x4 }
  - { offsetInCU: 0xBDFA, offset: 0x6ADAC, size: 0x8, addend: 0x0, symName: __ZN3std9panicking11panic_count17is_zero_slow_path17hdc4f4b2b31f5bfcbE, symObjAddr: 0x7B410, symBinAddr: 0x1D4544, symSize: 0x50 }
  - { offsetInCU: 0xBE02, offset: 0x6ADB4, size: 0x8, addend: 0x0, symName: '__ZN4core3ptr46drop_in_place$LT$std..io..stdio..StdinLock$GT$17hbe30df6abe36c5b3E', symObjAddr: 0x7B460, symBinAddr: 0x7B6D8, symSize: 0x60 }
  - { offsetInCU: 0xBE69, offset: 0x6AE1B, size: 0x8, addend: 0x0, symName: '__ZN4core3ptr46drop_in_place$LT$std..io..stdio..StdinLock$GT$17hbe30df6abe36c5b3E', symObjAddr: 0x7B460, symBinAddr: 0x7B6D8, symSize: 0x60 }
  - { offsetInCU: 0xBF65, offset: 0x6AF17, size: 0x8, addend: 0x0, symName: _rust_panic, symObjAddr: 0x95AEC, symBinAddr: 0x93FD0, symSize: 0xC }
  - { offsetInCU: 0xBF6D, offset: 0x6AF1F, size: 0x8, addend: 0x0, symName: __ZN3std5panic19get_backtrace_style17hecc01a7be60c2509E, symObjAddr: 0x95AF8, symBinAddr: 0x93FDC, symSize: 0x24C }
  - { offsetInCU: 0xBF8A, offset: 0x6AF3C, size: 0x8, addend: 0x0, symName: '__ZN3std9panicking25panic_hook_with_disk_dump28_$u7b$$u7b$closure$u7d$$u7d$17h9b87f051b1a915abE', symObjAddr: 0x991FC, symBinAddr: 0x976D4, symSize: 0x2D4 }
  - { offsetInCU: 0xBF92, offset: 0x6AF44, size: 0x8, addend: 0x0, symName: '__ZN44_$LT$$RF$T$u20$as$u20$core..fmt..Display$GT$3fmt17h383fe3f1bba06eaeE', symObjAddr: 0x994D0, symBinAddr: 0x979A8, symSize: 0x68 }
  - { offsetInCU: 0xC623, offset: 0x6B5D5, size: 0x8, addend: 0x0, symName: _rust_begin_unwind, symObjAddr: 0x99668, symBinAddr: 0x97B40, symSize: 0x40 }
  - { offsetInCU: 0xC62B, offset: 0x6B5DD, size: 0x8, addend: 0x0, symName: __ZN3std10sys_common9backtrace26__rust_end_short_backtrace17hf044a103f9a08a40E, symObjAddr: 0x996A8, symBinAddr: 0x97B80, symSize: 0xC }
  - { offsetInCU: 0xC6C7, offset: 0x6B679, size: 0x8, addend: 0x0, symName: '__ZN3std9panicking19begin_panic_handler28_$u7b$$u7b$closure$u7d$$u7d$17h96ce61eb29d6eca3E', symObjAddr: 0x996B4, symBinAddr: 0x97B8C, symSize: 0xA4 }
  - { offsetInCU: 0xC6CF, offset: 0x6B681, size: 0x8, addend: 0x0, symName: __ZN3std9panicking20rust_panic_with_hook17h0dc03b3dcdc3e704E, symObjAddr: 0x99758, symBinAddr: 0x97C30, symSize: 0x468 }
  - { offsetInCU: 0xC7B8, offset: 0x6B76A, size: 0x8, addend: 0x0, symName: '__ZN90_$LT$std..panicking..begin_panic_handler..PanicPayload$u20$as$u20$core..panic..BoxMeUp$GT$8take_box17h598fb3b4335cdf87E', symObjAddr: 0x99BE0, symBinAddr: 0x980B8, symSize: 0xE8 }
  - { offsetInCU: 0xC7C0, offset: 0x6B772, size: 0x8, addend: 0x0, symName: '__ZN90_$LT$std..panicking..begin_panic_handler..PanicPayload$u20$as$u20$core..panic..BoxMeUp$GT$3get17h90e43d30818e750eE', symObjAddr: 0x99CC8, symBinAddr: 0x981A0, symSize: 0x84 }
  - { offsetInCU: 0xC982, offset: 0x6B934, size: 0x8, addend: 0x0, symName: '__ZN90_$LT$std..panicking..begin_panic_handler..PanicPayload$u20$as$u20$core..panic..BoxMeUp$GT$3get17h90e43d30818e750eE', symObjAddr: 0x99CC8, symBinAddr: 0x981A0, symSize: 0x84 }
  - { offsetInCU: 0xC98A, offset: 0x6B93C, size: 0x8, addend: 0x0, symName: '__ZN36_$LT$T$u20$as$u20$core..any..Any$GT$7type_id17h428b29c4ebebc715E', symObjAddr: 0x99D4C, symBinAddr: 0x98224, symSize: 0x24 }
  - { offsetInCU: 0xCA0C, offset: 0x6B9BE, size: 0x8, addend: 0x0, symName: '__ZN93_$LT$std..panicking..begin_panic_handler..StrPanicPayload$u20$as$u20$core..panic..BoxMeUp$GT$8take_box17h34d8b641fdd0261cE', symObjAddr: 0x99F54, symBinAddr: 0x9842C, symSize: 0x48 }
  - { offsetInCU: 0xCA14, offset: 0x6B9C6, size: 0x8, addend: 0x0, symName: '__ZN93_$LT$std..panicking..begin_panic_handler..StrPanicPayload$u20$as$u20$core..panic..BoxMeUp$GT$3get17h612ca4222652b345E', symObjAddr: 0x99F9C, symBinAddr: 0x98474, symSize: 0xC }
  - { offsetInCU: 0xCAE7, offset: 0x6BA99, size: 0x8, addend: 0x0, symName: '__ZN93_$LT$std..panicking..begin_panic_handler..StrPanicPayload$u20$as$u20$core..panic..BoxMeUp$GT$3get17h612ca4222652b345E', symObjAddr: 0x99F9C, symBinAddr: 0x98474, symSize: 0xC }
  - { offsetInCU: 0xCAEF, offset: 0x6BAA1, size: 0x8, addend: 0x0, symName: '__ZN36_$LT$T$u20$as$u20$core..any..Any$GT$7type_id17h6d52501c103c0960E', symObjAddr: 0x99FA8, symBinAddr: 0x98480, symSize: 0x24 }
  - { offsetInCU: 0xCB2A, offset: 0x6BADC, size: 0x8, addend: 0x0, symName: __ZN3std9panicking20rust_panic_with_hook17h0dc03b3dcdc3e704E, symObjAddr: 0x99758, symBinAddr: 0x97C30, symSize: 0x468 }
  - { offsetInCU: 0xCB32, offset: 0x6BAE4, size: 0x8, addend: 0x0, symName: '__ZN4core3ptr70drop_in_place$LT$std..panicking..begin_panic_handler..PanicPayload$GT$17hb039ee0605df235cE', symObjAddr: 0x99BC0, symBinAddr: 0x98098, symSize: 0x20 }
  - { offsetInCU: 0xD694, offset: 0x6C646, size: 0x8, addend: 0x0, symName: '__ZN68_$LT$std..thread..local..AccessError$u20$as$u20$core..fmt..Debug$GT$3fmt17hba2b8f1a1880ea77E', symObjAddr: 0x78410, symBinAddr: 0x78F24, symSize: 0x18 }
  - { offsetInCU: 0xD69C, offset: 0x6C64E, size: 0x8, addend: 0x0, symName: __ZN3std3sys6common12thread_local8os_local13destroy_value17h642bb1b28ac7a76bE, symObjAddr: 0x78428, symBinAddr: 0x78F3C, symSize: 0x64 }
  - { offsetInCU: 0xD6BD, offset: 0x6C66F, size: 0x8, addend: 0x0, symName: '__ZN68_$LT$std..thread..local..AccessError$u20$as$u20$core..fmt..Debug$GT$3fmt17hba2b8f1a1880ea77E', symObjAddr: 0x78410, symBinAddr: 0x78F24, symSize: 0x18 }
  - { offsetInCU: 0xD6C5, offset: 0x6C677, size: 0x8, addend: 0x0, symName: __ZN3std3sys6common12thread_local8os_local13destroy_value17h642bb1b28ac7a76bE, symObjAddr: 0x78428, symBinAddr: 0x78F3C, symSize: 0x64 }
  - { offsetInCU: 0xD6DA, offset: 0x6C68C, size: 0x8, addend: 0x0, symName: '__ZN68_$LT$std..thread..local..AccessError$u20$as$u20$core..fmt..Debug$GT$3fmt17hba2b8f1a1880ea77E', symObjAddr: 0x78410, symBinAddr: 0x78F24, symSize: 0x18 }
  - { offsetInCU: 0xD6E2, offset: 0x6C694, size: 0x8, addend: 0x0, symName: __ZN3std3sys6common12thread_local8os_local13destroy_value17h642bb1b28ac7a76bE, symObjAddr: 0x78428, symBinAddr: 0x78F3C, symSize: 0x64 }
  - { offsetInCU: 0xD6F8, offset: 0x6C6AA, size: 0x8, addend: 0x0, symName: '__ZN68_$LT$std..thread..local..AccessError$u20$as$u20$core..fmt..Debug$GT$3fmt17hba2b8f1a1880ea77E', symObjAddr: 0x78410, symBinAddr: 0x78F24, symSize: 0x18 }
  - { offsetInCU: 0xD700, offset: 0x6C6B2, size: 0x8, addend: 0x0, symName: __ZN3std3sys6common12thread_local8os_local13destroy_value17h642bb1b28ac7a76bE, symObjAddr: 0x78428, symBinAddr: 0x78F3C, symSize: 0x64 }
  - { offsetInCU: 0xD7B8, offset: 0x6C76A, size: 0x8, addend: 0x0, symName: __ZN3std6thread6Thread3new17h00d4dafe408230f6E, symObjAddr: 0x787F8, symBinAddr: 0x792D4, symSize: 0x128 }
  - { offsetInCU: 0xD7C0, offset: 0x6C772, size: 0x8, addend: 0x0, symName: '__ZN4core3ptr47drop_in_place$LT$alloc..ffi..c_str..CString$GT$17h5ddd17ba3c2004f7E', symObjAddr: 0x78920, symBinAddr: 0x793FC, symSize: 0x10 }
  - { offsetInCU: 0xDB4A, offset: 0x6CAFC, size: 0x8, addend: 0x0, symName: __ZN3std6thread8ThreadId3new9exhausted17h93d201ae96b5129dE, symObjAddr: 0x79E98, symBinAddr: 0x1D4450, symSize: 0x3C }
  - { offsetInCU: 0xDB52, offset: 0x6CB04, size: 0x8, addend: 0x0, symName: '__ZN4core3ptr107drop_in_place$LT$alloc..sync..Arc$LT$core..mem..maybe_uninit..MaybeUninit$LT$std..thread..Inner$GT$$GT$$GT$17h26dcca8860c64d64E', symObjAddr: 0x79ED4, symBinAddr: 0x7A254, symSize: 0x28 }
  - { offsetInCU: 0xDC2E, offset: 0x6CBE0, size: 0x8, addend: 0x0, symName: __ZN3std5panic19get_backtrace_style17hecc01a7be60c2509E, symObjAddr: 0x95AF8, symBinAddr: 0x93FDC, symSize: 0x24C }
  - { offsetInCU: 0xDC36, offset: 0x6CBE8, size: 0x8, addend: 0x0, symName: '__ZN5alloc7raw_vec19RawVec$LT$T$C$A$GT$16reserve_for_push17h996fd8cd5db8b93dE', symObjAddr: 0x95D44, symBinAddr: 0x94228, symSize: 0xB8 }
  - { offsetInCU: 0xE3CD, offset: 0x6D37F, size: 0x8, addend: 0x0, symName: '__ZN79_$LT$std..backtrace_rs..symbolize..SymbolName$u20$as$u20$core..fmt..Display$GT$3fmt17h6d87869188bef0f8E', symObjAddr: 0x79FFC, symBinAddr: 0x7A37C, symSize: 0x258 }
  - { offsetInCU: 0xE3D5, offset: 0x6D387, size: 0x8, addend: 0x0, symName: __ZN3std10sys_common9backtrace15output_filename17hdb43e4d0883efd50E, symObjAddr: 0x7A254, symBinAddr: 0x7A5D4, symSize: 0x3AC }
  - { offsetInCU: 0xE488, offset: 0x6D43A, size: 0x8, addend: 0x0, symName: __ZN3std10sys_common9backtrace15output_filename17hdb43e4d0883efd50E, symObjAddr: 0x7A254, symBinAddr: 0x7A5D4, symSize: 0x3AC }
  - { offsetInCU: 0xE5F5, offset: 0x6D5A7, size: 0x8, addend: 0x0, symName: __ZN3std12backtrace_rs9symbolize5gimli4mmap17hc073ba171fecc27dE, symObjAddr: 0x7B830, symBinAddr: 0x7B9D4, symSize: 0x2A0 }
  - { offsetInCU: 0xE5FD, offset: 0x6D5AF, size: 0x8, addend: 0x0, symName: '__ZN4core3ptr70drop_in_place$LT$std..backtrace_rs..symbolize..gimli..stash..Stash$GT$17hb40235d96ade4edbE', symObjAddr: 0x7BAD0, symBinAddr: 0x7BC74, symSize: 0xA8 }
  - { offsetInCU: 0xEC5E, offset: 0x6DC10, size: 0x8, addend: 0x0, symName: __ZN3std12backtrace_rs9symbolize5gimli5macho11find_header17h733086c57938242cE, symObjAddr: 0x7BB7C, symBinAddr: 0x7BD20, symSize: 0x1C4 }
  - { offsetInCU: 0xEC66, offset: 0x6DC18, size: 0x8, addend: 0x0, symName: '__ZN95_$LT$std..path..Components$u20$as$u20$core..iter..traits..double_ended..DoubleEndedIterator$GT$9next_back17h46f1a4ed5c3f8aa2E', symObjAddr: 0x7BD40, symBinAddr: 0x7BEE4, symSize: 0x308 }
  - { offsetInCU: 0xEC82, offset: 0x6DC34, size: 0x8, addend: 0x0, symName: __ZN3std12backtrace_rs9symbolize5gimli5macho11find_header17h733086c57938242cE, symObjAddr: 0x7BB7C, symBinAddr: 0x7BD20, symSize: 0x1C4 }
  - { offsetInCU: 0xEC9B, offset: 0x6DC4D, size: 0x8, addend: 0x0, symName: __ZN3std12backtrace_rs9symbolize5gimli5macho11find_header17h733086c57938242cE, symObjAddr: 0x7BB7C, symBinAddr: 0x7BD20, symSize: 0x1C4 }
  - { offsetInCU: 0xF26C, offset: 0x6E21E, size: 0x8, addend: 0x0, symName: __ZN3std12backtrace_rs9symbolize5gimli5macho6Object5parse17h9813e1bb0c80ab05E, symObjAddr: 0x7C048, symBinAddr: 0x7C1EC, symSize: 0xCC8 }
  - { offsetInCU: 0xF274, offset: 0x6E226, size: 0x8, addend: 0x0, symName: __ZN3std12backtrace_rs9symbolize5gimli7Context3new17h6ed9fd42c8e16098E, symObjAddr: 0x7CD10, symBinAddr: 0x7CEB4, symSize: 0x2E14 }
  - { offsetInCU: 0x10C06, offset: 0x6FBB8, size: 0x8, addend: 0x0, symName: __ZN3std12backtrace_rs9symbolize5gimli5macho6Object7section17hafcddec50a433ff7E, symObjAddr: 0x8B9B0, symBinAddr: 0x8B9E8, symSize: 0x300 }
  - { offsetInCU: 0x10C0E, offset: 0x6FBC0, size: 0x8, addend: 0x0, symName: '__ZN4core3ptr159drop_in_place$LT$alloc..sync..ArcInner$LT$gimli..read..dwarf..Dwarf$LT$gimli..read..endian_slice..EndianSlice$LT$gimli..endianity..LittleEndian$GT$$GT$$GT$$GT$17hc12e908c4945f7e1E', symObjAddr: 0x8BCB0, symBinAddr: 0x8BCE8, symSize: 0x8C }
  - { offsetInCU: 0x11187, offset: 0x70139, size: 0x8, addend: 0x0, symName: __ZN3std12backtrace_rs9symbolize5gimli7Context3new17h6ed9fd42c8e16098E, symObjAddr: 0x7CD10, symBinAddr: 0x7CEB4, symSize: 0x2E14 }
  - { offsetInCU: 0x1118F, offset: 0x70141, size: 0x8, addend: 0x0, symName: __ZN3std3sys4unix2fs7readdir17h649b19a574058fd6E, symObjAddr: 0x7FB24, symBinAddr: 0x7FCC8, symSize: 0x27C }
  - { offsetInCU: 0x170E0, offset: 0x76092, size: 0x8, addend: 0x0, symName: __ZN3std12backtrace_rs9symbolize5gimli7Context11find_frames17hca8e15bb7938c3fcE, symObjAddr: 0x80398, symBinAddr: 0x8045C, symSize: 0x3E4 }
  - { offsetInCU: 0x170E8, offset: 0x7609A, size: 0x8, addend: 0x0, symName: '__ZN9addr2line18FrameIter$LT$R$GT$4next17hf0d64a520f7bb232E', symObjAddr: 0x8077C, symBinAddr: 0x80840, symSize: 0x2AC }
  - { offsetInCU: 0x1779D, offset: 0x7674F, size: 0x8, addend: 0x0, symName: __ZN3std12backtrace_rs9symbolize6Symbol4name17h55245cee00b9b303E, symObjAddr: 0x94F3C, symBinAddr: 0x93650, symSize: 0xE4 }
  - { offsetInCU: 0x177A5, offset: 0x76757, size: 0x8, addend: 0x0, symName: __ZN3std12backtrace_rs9backtrace9libunwind5trace8trace_fn17hac5314679c287db8E, symObjAddr: 0x95020, symBinAddr: 0x93734, symSize: 0x3C }
  - { offsetInCU: 0x1788E, offset: 0x76840, size: 0x8, addend: 0x0, symName: __ZN3std12backtrace_rs9backtrace9libunwind5trace8trace_fn17hac5314679c287db8E, symObjAddr: 0x95020, symBinAddr: 0x93734, symSize: 0x3C }
  - { offsetInCU: 0x1796D, offset: 0x7691F, size: 0x8, addend: 0x0, symName: __ZN3std12backtrace_rs9backtrace9libunwind5trace8trace_fn17hac5314679c287db8E, symObjAddr: 0x95020, symBinAddr: 0x93734, symSize: 0x3C }
  - { offsetInCU: 0x17975, offset: 0x76927, size: 0x8, addend: 0x0, symName: __ZN3std3sys4unix5locks14pthread_rwlock6RwLock4read17h3053437a3b1141b2E, symObjAddr: 0x9505C, symBinAddr: 0x93770, symSize: 0x120 }
  - { offsetInCU: 0x17A2F, offset: 0x769E1, size: 0x8, addend: 0x0, symName: __ZN3std12backtrace_rs5print17BacktraceFrameFmt21print_raw_with_column17h3ba2b65e4a76500dE, symObjAddr: 0x952F4, symBinAddr: 0x938E0, symSize: 0x540 }
  - { offsetInCU: 0x17A37, offset: 0x769E9, size: 0x8, addend: 0x0, symName: '__ZN50_$LT$$BP$mut$u20$T$u20$as$u20$core..fmt..Debug$GT$3fmt17h31bffc556e2801f7E', symObjAddr: 0x95834, symBinAddr: 0x93E20, symSize: 0xE4 }
  - { offsetInCU: 0x17DEB, offset: 0x76D9D, size: 0x8, addend: 0x0, symName: __ZN3std4path4Path5_join17h3d0d4a57fdef5529E, symObjAddr: 0x80148, symBinAddr: 0x802EC, symSize: 0x170 }
  - { offsetInCU: 0x17DF3, offset: 0x76DA5, size: 0x8, addend: 0x0, symName: '__ZN5alloc7raw_vec19RawVec$LT$T$C$A$GT$7reserve21do_reserve_and_handle17ha8bd5ae3c53de645E', symObjAddr: 0x802B8, symBinAddr: 0x1D4668, symSize: 0xE0 }
  - { offsetInCU: 0x18367, offset: 0x77319, size: 0x8, addend: 0x0, symName: '__ZN57_$LT$std..path..Display$u20$as$u20$core..fmt..Display$GT$3fmt17h82cf6c9fd5fc5d7eE', symObjAddr: 0x95DFC, symBinAddr: 0x942E0, symSize: 0x10 }
  - { offsetInCU: 0x1836F, offset: 0x77321, size: 0x8, addend: 0x0, symName: __ZN3std7process5abort17hf8bebe9e57f0c13dE, symObjAddr: 0x95E0C, symBinAddr: 0x1D6328, symSize: 0xC }
  - { offsetInCU: 0x1838C, offset: 0x7733E, size: 0x8, addend: 0x0, symName: __ZN3std7process5abort17hf8bebe9e57f0c13dE, symObjAddr: 0x95E0C, symBinAddr: 0x1D6328, symSize: 0xC }
  - { offsetInCU: 0x1845C, offset: 0x7740E, size: 0x8, addend: 0x0, symName: __ZN3std4path10Components7as_path17h03f67e2ace04fbc2E, symObjAddr: 0x7AA5C, symBinAddr: 0x7ADDC, symSize: 0x504 }
  - { offsetInCU: 0x18464, offset: 0x77416, size: 0x8, addend: 0x0, symName: __ZN3std4path10Components25parse_next_component_back17h4d8c45df771a66b3E, symObjAddr: 0x7AF60, symBinAddr: 0x7B2E0, symSize: 0x114 }
  - { offsetInCU: 0x1896A, offset: 0x7791C, size: 0x8, addend: 0x0, symName: __ZN3std4path10Components25parse_next_component_back17h4d8c45df771a66b3E, symObjAddr: 0x7AF60, symBinAddr: 0x7B2E0, symSize: 0x114 }
  - { offsetInCU: 0x18984, offset: 0x77936, size: 0x8, addend: 0x0, symName: __ZN3std4path10Components25parse_next_component_back17h4d8c45df771a66b3E, symObjAddr: 0x7AF60, symBinAddr: 0x7B2E0, symSize: 0x114 }
  - { offsetInCU: 0x1899E, offset: 0x77950, size: 0x8, addend: 0x0, symName: __ZN3std4path10Components25parse_next_component_back17h4d8c45df771a66b3E, symObjAddr: 0x7AF60, symBinAddr: 0x7B2E0, symSize: 0x114 }
  - { offsetInCU: 0x189B8, offset: 0x7796A, size: 0x8, addend: 0x0, symName: __ZN3std4path10Components25parse_next_component_back17h4d8c45df771a66b3E, symObjAddr: 0x7AF60, symBinAddr: 0x7B2E0, symSize: 0x114 }
  - { offsetInCU: 0x189CA, offset: 0x7797C, size: 0x8, addend: 0x0, symName: __ZN3std4path10Components25parse_next_component_back17h4d8c45df771a66b3E, symObjAddr: 0x7AF60, symBinAddr: 0x7B2E0, symSize: 0x114 }
  - { offsetInCU: 0x189D2, offset: 0x77984, size: 0x8, addend: 0x0, symName: __ZN3std4path10Components15len_before_body17h72a5dad9752f94cfE, symObjAddr: 0x7B074, symBinAddr: 0x7B3F4, symSize: 0x17C }
  - { offsetInCU: 0x18B9B, offset: 0x77B4D, size: 0x8, addend: 0x0, symName: __ZN3std4path10Components15len_before_body17h72a5dad9752f94cfE, symObjAddr: 0x7B074, symBinAddr: 0x7B3F4, symSize: 0x17C }
  - { offsetInCU: 0x18BA3, offset: 0x77B55, size: 0x8, addend: 0x0, symName: '__ZN5alloc7raw_vec19RawVec$LT$T$C$A$GT$7reserve21do_reserve_and_handle17h56e59daa7ae6851dE', symObjAddr: 0x7B1F0, symBinAddr: 0x1D448C, symSize: 0xB8 }
  - { offsetInCU: 0x18BB7, offset: 0x77B69, size: 0x8, addend: 0x0, symName: __ZN3std4path10Components15len_before_body17h72a5dad9752f94cfE, symObjAddr: 0x7B074, symBinAddr: 0x7B3F4, symSize: 0x17C }
  - { offsetInCU: 0x18BD1, offset: 0x77B83, size: 0x8, addend: 0x0, symName: __ZN3std4path10Components15len_before_body17h72a5dad9752f94cfE, symObjAddr: 0x7B074, symBinAddr: 0x7B3F4, symSize: 0x17C }
  - { offsetInCU: 0x18D7A, offset: 0x77D2C, size: 0x8, addend: 0x0, symName: '__ZN80_$LT$std..path..Components$u20$as$u20$core..iter..traits..iterator..Iterator$GT$4next17h65c107562b29fef2E', symObjAddr: 0x7A6EC, symBinAddr: 0x7AA6C, symSize: 0x370 }
  - { offsetInCU: 0x18D82, offset: 0x77D34, size: 0x8, addend: 0x0, symName: __ZN3std4path10Components7as_path17h03f67e2ace04fbc2E, symObjAddr: 0x7AA5C, symBinAddr: 0x7ADDC, symSize: 0x504 }
  - { offsetInCU: 0x19035, offset: 0x77FE7, size: 0x8, addend: 0x0, symName: '__ZN95_$LT$std..path..Components$u20$as$u20$core..iter..traits..double_ended..DoubleEndedIterator$GT$9next_back17h46f1a4ed5c3f8aa2E', symObjAddr: 0x7BD40, symBinAddr: 0x7BEE4, symSize: 0x308 }
  - { offsetInCU: 0x1903D, offset: 0x77FEF, size: 0x8, addend: 0x0, symName: __ZN3std12backtrace_rs9symbolize5gimli5macho6Object5parse17h9813e1bb0c80ab05E, symObjAddr: 0x7C048, symBinAddr: 0x7C1EC, symSize: 0xCC8 }
  - { offsetInCU: 0x19675, offset: 0x78627, size: 0x8, addend: 0x0, symName: __ZN3std7process5abort17hf8bebe9e57f0c13dE, symObjAddr: 0x95E0C, symBinAddr: 0x1D6328, symSize: 0xC }
  - { offsetInCU: 0x1967D, offset: 0x7862F, size: 0x8, addend: 0x0, symName: '__ZN91_$LT$std..sys_common..backtrace.._print..DisplayBacktrace$u20$as$u20$core..fmt..Display$GT$3fmt17h04dc643271d75407E', symObjAddr: 0x95E18, symBinAddr: 0x942F0, symSize: 0x31C }
  - { offsetInCU: 0x1A73D, offset: 0x796EF, size: 0x8, addend: 0x0, symName: '__ZN4core3ptr81drop_in_place$LT$core..result..Result$LT$$LP$$RP$$C$std..io..error..Error$GT$$GT$17h860add9c6ecdcb6dE', symObjAddr: 0x77E94, symBinAddr: 0x789A8, symSize: 0x98 }
  - { offsetInCU: 0x1A745, offset: 0x796F7, size: 0x8, addend: 0x0, symName: __ZN3std3sys4unix14abort_internal17h9b85a85c9e12d595E, symObjAddr: 0x77F2C, symBinAddr: 0x78A40, symSize: 0xC }
  - { offsetInCU: 0x1A7A4, offset: 0x79756, size: 0x8, addend: 0x0, symName: __ZN3std3sys4unix14abort_internal17h9b85a85c9e12d595E, symObjAddr: 0x77F2C, symBinAddr: 0x78A40, symSize: 0xC }
  - { offsetInCU: 0x1A7BD, offset: 0x7976F, size: 0x8, addend: 0x0, symName: __ZN3std3sys4unix14abort_internal17h9b85a85c9e12d595E, symObjAddr: 0x77F2C, symBinAddr: 0x78A40, symSize: 0xC }
  - { offsetInCU: 0x1A92B, offset: 0x798DD, size: 0x8, addend: 0x0, symName: '__ZN4core3ptr76drop_in_place$LT$std..io..Write..write_fmt..Adapter$LT$std..fs..File$GT$$GT$17haf6e794a5447c50eE', symObjAddr: 0x77F44, symBinAddr: 0x78A58, symSize: 0x98 }
  - { offsetInCU: 0x1A933, offset: 0x798E5, size: 0x8, addend: 0x0, symName: '__ZN80_$LT$std..io..Write..write_fmt..Adapter$LT$T$GT$$u20$as$u20$core..fmt..Write$GT$9write_str17hd8f7c2e11acfabe7E', symObjAddr: 0x77FDC, symBinAddr: 0x78AF0, symSize: 0x134 }
  - { offsetInCU: 0x1A9A8, offset: 0x7995A, size: 0x8, addend: 0x0, symName: '__ZN80_$LT$std..io..Write..write_fmt..Adapter$LT$T$GT$$u20$as$u20$core..fmt..Write$GT$9write_str17hd8f7c2e11acfabe7E', symObjAddr: 0x77FDC, symBinAddr: 0x78AF0, symSize: 0x134 }
  - { offsetInCU: 0x1A9C1, offset: 0x79973, size: 0x8, addend: 0x0, symName: '__ZN80_$LT$std..io..Write..write_fmt..Adapter$LT$T$GT$$u20$as$u20$core..fmt..Write$GT$9write_str17hd8f7c2e11acfabe7E', symObjAddr: 0x77FDC, symBinAddr: 0x78AF0, symSize: 0x134 }
  - { offsetInCU: 0x1AB30, offset: 0x79AE2, size: 0x8, addend: 0x0, symName: '__ZN4core3ptr100drop_in_place$LT$$RF$mut$u20$std..io..Write..write_fmt..Adapter$LT$alloc..vec..Vec$LT$u8$GT$$GT$$GT$17h59ae4c9da05b37d8E', symObjAddr: 0x78208, symBinAddr: 0x78D1C, symSize: 0x4 }
  - { offsetInCU: 0x1AB38, offset: 0x79AEA, size: 0x8, addend: 0x0, symName: '__ZN50_$LT$$RF$mut$u20$W$u20$as$u20$core..fmt..Write$GT$9write_str17h9691ddbf392356e9E', symObjAddr: 0x7820C, symBinAddr: 0x78D20, symSize: 0x8 }
  - { offsetInCU: 0x1AB6F, offset: 0x79B21, size: 0x8, addend: 0x0, symName: '__ZN4core3ptr29drop_in_place$LT$$LP$$RP$$GT$17h1cf6e88cafb253b9E', symObjAddr: 0x7840C, symBinAddr: 0x78F20, symSize: 0x4 }
  - { offsetInCU: 0x1AB77, offset: 0x79B29, size: 0x8, addend: 0x0, symName: '__ZN68_$LT$std..thread..local..AccessError$u20$as$u20$core..fmt..Debug$GT$3fmt17hba2b8f1a1880ea77E', symObjAddr: 0x78410, symBinAddr: 0x78F24, symSize: 0x18 }
  - { offsetInCU: 0x1AC35, offset: 0x79BE7, size: 0x8, addend: 0x0, symName: '__ZN4core3ptr47drop_in_place$LT$alloc..ffi..c_str..CString$GT$17h5ddd17ba3c2004f7E', symObjAddr: 0x78920, symBinAddr: 0x793FC, symSize: 0x10 }
  - { offsetInCU: 0x1AC3D, offset: 0x79BEF, size: 0x8, addend: 0x0, symName: __ZN3std10sys_common4once5queue4Once4call17h3112c1e27045a9f2E, symObjAddr: 0x78930, symBinAddr: 0x1D3D30, symSize: 0x4DC }
  - { offsetInCU: 0x1AC52, offset: 0x79C04, size: 0x8, addend: 0x0, symName: '__ZN4core3ptr47drop_in_place$LT$alloc..ffi..c_str..CString$GT$17h5ddd17ba3c2004f7E', symObjAddr: 0x78920, symBinAddr: 0x793FC, symSize: 0x10 }
  - { offsetInCU: 0x1ADBC, offset: 0x79D6E, size: 0x8, addend: 0x0, symName: '__ZN4core3ptr62drop_in_place$LT$std..sys_common..once..queue..WaiterQueue$GT$17h5c596356245e4efdE', symObjAddr: 0x78E0C, symBinAddr: 0x7940C, symSize: 0x4 }
  - { offsetInCU: 0x1ADC4, offset: 0x79D76, size: 0x8, addend: 0x0, symName: '__ZN83_$LT$std..sys_common..once..queue..WaiterQueue$u20$as$u20$core..ops..drop..Drop$GT$4drop17hb0e81f9394c94eb6E', symObjAddr: 0x78E10, symBinAddr: 0x79410, symSize: 0xDC }
  - { offsetInCU: 0x1AE4D, offset: 0x79DFF, size: 0x8, addend: 0x0, symName: '__ZN4core3ptr115drop_in_place$LT$core..cell..RefMut$LT$core..option..Option$LT$std..sys_common..thread_info..ThreadInfo$GT$$GT$$GT$17ha4d57188d26e0181E', symObjAddr: 0x79064, symBinAddr: 0x79664, symSize: 0x10 }
  - { offsetInCU: 0x1AE55, offset: 0x79E07, size: 0x8, addend: 0x0, symName: '__ZN4core3ptr44drop_in_place$LT$std..thread..PanicGuard$GT$17h15259c44bc567031E', symObjAddr: 0x79074, symBinAddr: 0x79674, symSize: 0x3C }
  - { offsetInCU: 0x1AE6A, offset: 0x79E1C, size: 0x8, addend: 0x0, symName: '__ZN4core3ptr115drop_in_place$LT$core..cell..RefMut$LT$core..option..Option$LT$std..sys_common..thread_info..ThreadInfo$GT$$GT$$GT$17ha4d57188d26e0181E', symObjAddr: 0x79064, symBinAddr: 0x79664, symSize: 0x10 }
  - { offsetInCU: 0x1AE84, offset: 0x79E36, size: 0x8, addend: 0x0, symName: '__ZN4core3ptr115drop_in_place$LT$core..cell..RefMut$LT$core..option..Option$LT$std..sys_common..thread_info..ThreadInfo$GT$$GT$$GT$17ha4d57188d26e0181E', symObjAddr: 0x79064, symBinAddr: 0x79664, symSize: 0x10 }
  - { offsetInCU: 0x1AE9E, offset: 0x79E50, size: 0x8, addend: 0x0, symName: '__ZN4core3ptr115drop_in_place$LT$core..cell..RefMut$LT$core..option..Option$LT$std..sys_common..thread_info..ThreadInfo$GT$$GT$$GT$17ha4d57188d26e0181E', symObjAddr: 0x79064, symBinAddr: 0x79664, symSize: 0x10 }
  - { offsetInCU: 0x1AF22, offset: 0x79ED4, size: 0x8, addend: 0x0, symName: '__ZN4core3ptr44drop_in_place$LT$std..thread..PanicGuard$GT$17h15259c44bc567031E', symObjAddr: 0x79074, symBinAddr: 0x79674, symSize: 0x3C }
  - { offsetInCU: 0x1AF2A, offset: 0x79EDC, size: 0x8, addend: 0x0, symName: '__ZN4core3ptr171drop_in_place$LT$std..sys..common..thread_local..os_local..Value$LT$core..cell..RefCell$LT$core..option..Option$LT$std..sys_common..thread_info..ThreadInfo$GT$$GT$$GT$$GT$17hc2906b127214223fE', symObjAddr: 0x790B0, symBinAddr: 0x796B0, symSize: 0x3C }
  - { offsetInCU: 0x1AF4E, offset: 0x79F00, size: 0x8, addend: 0x0, symName: '__ZN4core3ptr171drop_in_place$LT$std..sys..common..thread_local..os_local..Value$LT$core..cell..RefCell$LT$core..option..Option$LT$std..sys_common..thread_info..ThreadInfo$GT$$GT$$GT$$GT$17hc2906b127214223fE', symObjAddr: 0x790B0, symBinAddr: 0x796B0, symSize: 0x3C }
  - { offsetInCU: 0x1B15E, offset: 0x7A110, size: 0x8, addend: 0x0, symName: '__ZN4core3ptr171drop_in_place$LT$std..sys..common..thread_local..os_local..Value$LT$core..cell..RefCell$LT$core..option..Option$LT$std..sys_common..thread_info..ThreadInfo$GT$$GT$$GT$$GT$17hc2906b127214223fE', symObjAddr: 0x790B0, symBinAddr: 0x796B0, symSize: 0x3C }
  - { offsetInCU: 0x1B166, offset: 0x7A118, size: 0x8, addend: 0x0, symName: __ZN3std3sys6common12thread_local8os_local13destroy_value17h1944e57eaa37dd89E, symObjAddr: 0x790EC, symBinAddr: 0x796EC, symSize: 0xA8 }
  - { offsetInCU: 0x1B17B, offset: 0x7A12D, size: 0x8, addend: 0x0, symName: '__ZN4core3ptr171drop_in_place$LT$std..sys..common..thread_local..os_local..Value$LT$core..cell..RefCell$LT$core..option..Option$LT$std..sys_common..thread_info..ThreadInfo$GT$$GT$$GT$$GT$17hc2906b127214223fE', symObjAddr: 0x790B0, symBinAddr: 0x796B0, symSize: 0x3C }
  - { offsetInCU: 0x1B195, offset: 0x7A147, size: 0x8, addend: 0x0, symName: '__ZN4core3ptr171drop_in_place$LT$std..sys..common..thread_local..os_local..Value$LT$core..cell..RefCell$LT$core..option..Option$LT$std..sys_common..thread_info..ThreadInfo$GT$$GT$$GT$$GT$17hc2906b127214223fE', symObjAddr: 0x790B0, symBinAddr: 0x796B0, symSize: 0x3C }
  - { offsetInCU: 0x1B1AF, offset: 0x7A161, size: 0x8, addend: 0x0, symName: '__ZN4core3ptr171drop_in_place$LT$std..sys..common..thread_local..os_local..Value$LT$core..cell..RefCell$LT$core..option..Option$LT$std..sys_common..thread_info..ThreadInfo$GT$$GT$$GT$$GT$17hc2906b127214223fE', symObjAddr: 0x790B0, symBinAddr: 0x796B0, symSize: 0x3C }
  - { offsetInCU: 0x1B342, offset: 0x7A2F4, size: 0x8, addend: 0x0, symName: '__ZN4core3ptr196drop_in_place$LT$alloc..boxed..Box$LT$std..sys..common..thread_local..os_local..Value$LT$core..cell..RefCell$LT$core..option..Option$LT$std..sys_common..thread_info..ThreadInfo$GT$$GT$$GT$$GT$$GT$17h80eb23f15a9c7d74E', symObjAddr: 0x79194, symBinAddr: 0x79794, symSize: 0x5C }
  - { offsetInCU: 0x1B34A, offset: 0x7A2FC, size: 0x8, addend: 0x0, symName: __ZN4core9panicking13assert_failed17h4b58689a2eaf26d1E, symObjAddr: 0x791F0, symBinAddr: 0x1D420C, symSize: 0x3C }
  - { offsetInCU: 0x1B52D, offset: 0x7A4DF, size: 0x8, addend: 0x0, symName: __ZN4core9panicking13assert_failed17h4b58689a2eaf26d1E, symObjAddr: 0x791F0, symBinAddr: 0x1D420C, symSize: 0x3C }
  - { offsetInCU: 0x1B547, offset: 0x7A4F9, size: 0x8, addend: 0x0, symName: __ZN4core9panicking13assert_failed17h4b58689a2eaf26d1E, symObjAddr: 0x791F0, symBinAddr: 0x1D420C, symSize: 0x3C }
  - { offsetInCU: 0x1B561, offset: 0x7A513, size: 0x8, addend: 0x0, symName: __ZN4core9panicking13assert_failed17h4b58689a2eaf26d1E, symObjAddr: 0x791F0, symBinAddr: 0x1D420C, symSize: 0x3C }
  - { offsetInCU: 0x1B57A, offset: 0x7A52C, size: 0x8, addend: 0x0, symName: __ZN4core9panicking13assert_failed17h4b58689a2eaf26d1E, symObjAddr: 0x791F0, symBinAddr: 0x1D420C, symSize: 0x3C }
  - { offsetInCU: 0x1B593, offset: 0x7A545, size: 0x8, addend: 0x0, symName: __ZN4core9panicking13assert_failed17h4b58689a2eaf26d1E, symObjAddr: 0x791F0, symBinAddr: 0x1D420C, symSize: 0x3C }
  - { offsetInCU: 0x1B5D3, offset: 0x7A585, size: 0x8, addend: 0x0, symName: '__ZN4core3ptr73drop_in_place$LT$std..sys..unix..locks..pthread_mutex..AllocatedMutex$GT$17h1cf80ed7c12f89bcE', symObjAddr: 0x7965C, symBinAddr: 0x79A18, symSize: 0x4 }
  - { offsetInCU: 0x1B5DB, offset: 0x7A58D, size: 0x8, addend: 0x0, symName: '__ZN4core3ptr98drop_in_place$LT$alloc..boxed..Box$LT$std..sys..unix..locks..pthread_mutex..AllocatedMutex$GT$$GT$17h9ccd16f2a4b5815eE', symObjAddr: 0x79660, symBinAddr: 0x79A1C, symSize: 0x24 }
  - { offsetInCU: 0x1B5F0, offset: 0x7A5A2, size: 0x8, addend: 0x0, symName: '__ZN4core3ptr73drop_in_place$LT$std..sys..unix..locks..pthread_mutex..AllocatedMutex$GT$17h1cf80ed7c12f89bcE', symObjAddr: 0x7965C, symBinAddr: 0x79A18, symSize: 0x4 }
  - { offsetInCU: 0x1B5F8, offset: 0x7A5AA, size: 0x8, addend: 0x0, symName: '__ZN4core3ptr98drop_in_place$LT$alloc..boxed..Box$LT$std..sys..unix..locks..pthread_mutex..AllocatedMutex$GT$$GT$17h9ccd16f2a4b5815eE', symObjAddr: 0x79660, symBinAddr: 0x79A1C, symSize: 0x24 }
  - { offsetInCU: 0x1B607, offset: 0x7A5B9, size: 0x8, addend: 0x0, symName: '__ZN4core3ptr98drop_in_place$LT$alloc..boxed..Box$LT$std..sys..unix..locks..pthread_mutex..AllocatedMutex$GT$$GT$17h9ccd16f2a4b5815eE', symObjAddr: 0x79660, symBinAddr: 0x79A1C, symSize: 0x24 }
  - { offsetInCU: 0x1B60F, offset: 0x7A5C1, size: 0x8, addend: 0x0, symName: '__ZN4core3ptr42drop_in_place$LT$std..io..error..Error$GT$17hf5df016ae191349dE', symObjAddr: 0x79684, symBinAddr: 0x79A40, symSize: 0x94 }
  - { offsetInCU: 0x1B660, offset: 0x7A612, size: 0x8, addend: 0x0, symName: '__ZN4core3ptr42drop_in_place$LT$std..io..error..Error$GT$17hf5df016ae191349dE', symObjAddr: 0x79684, symBinAddr: 0x79A40, symSize: 0x94 }
  - { offsetInCU: 0x1B67A, offset: 0x7A62C, size: 0x8, addend: 0x0, symName: '__ZN4core3ptr42drop_in_place$LT$std..io..error..Error$GT$17hf5df016ae191349dE', symObjAddr: 0x79684, symBinAddr: 0x79A40, symSize: 0x94 }
  - { offsetInCU: 0x1B694, offset: 0x7A646, size: 0x8, addend: 0x0, symName: '__ZN4core3ptr42drop_in_place$LT$std..io..error..Error$GT$17hf5df016ae191349dE', symObjAddr: 0x79684, symBinAddr: 0x79A40, symSize: 0x94 }
  - { offsetInCU: 0x1B6AD, offset: 0x7A65F, size: 0x8, addend: 0x0, symName: '__ZN4core3ptr42drop_in_place$LT$std..io..error..Error$GT$17hf5df016ae191349dE', symObjAddr: 0x79684, symBinAddr: 0x79A40, symSize: 0x94 }
  - { offsetInCU: 0x1B6C6, offset: 0x7A678, size: 0x8, addend: 0x0, symName: '__ZN4core3ptr42drop_in_place$LT$std..io..error..Error$GT$17hf5df016ae191349dE', symObjAddr: 0x79684, symBinAddr: 0x79A40, symSize: 0x94 }
  - { offsetInCU: 0x1B6D9, offset: 0x7A68B, size: 0x8, addend: 0x0, symName: '__ZN4core3ptr42drop_in_place$LT$std..io..error..Error$GT$17hf5df016ae191349dE', symObjAddr: 0x79684, symBinAddr: 0x79A40, symSize: 0x94 }
  - { offsetInCU: 0x1B6E1, offset: 0x7A693, size: 0x8, addend: 0x0, symName: '__ZN4core3ptr75drop_in_place$LT$std..sys..unix..locks..pthread_mutex..PthreadMutexAttr$GT$17he2976086f135d2f8E', symObjAddr: 0x79718, symBinAddr: 0x79AD4, symSize: 0x4 }
  - { offsetInCU: 0x1B732, offset: 0x7A6E4, size: 0x8, addend: 0x0, symName: '__ZN4core3ptr75drop_in_place$LT$std..sys..unix..locks..pthread_mutex..PthreadMutexAttr$GT$17he2976086f135d2f8E', symObjAddr: 0x79718, symBinAddr: 0x79AD4, symSize: 0x4 }
  - { offsetInCU: 0x1B74B, offset: 0x7A6FD, size: 0x8, addend: 0x0, symName: '__ZN4core3ptr75drop_in_place$LT$std..sys..unix..locks..pthread_mutex..PthreadMutexAttr$GT$17he2976086f135d2f8E', symObjAddr: 0x79718, symBinAddr: 0x79AD4, symSize: 0x4 }
  - { offsetInCU: 0x1B8B8, offset: 0x7A86A, size: 0x8, addend: 0x0, symName: '__ZN4core3ptr75drop_in_place$LT$std..sys..unix..locks..pthread_mutex..PthreadMutexAttr$GT$17he2976086f135d2f8E', symObjAddr: 0x79718, symBinAddr: 0x79AD4, symSize: 0x4 }
  - { offsetInCU: 0x1B8C0, offset: 0x7A872, size: 0x8, addend: 0x0, symName: '__ZN58_$LT$std..io..error..Error$u20$as$u20$core..fmt..Debug$GT$3fmt17hbcff618564c44c20E', symObjAddr: 0x7971C, symBinAddr: 0x79AD8, symSize: 0x618 }
  - { offsetInCU: 0x1B8D5, offset: 0x7A887, size: 0x8, addend: 0x0, symName: '__ZN4core3ptr75drop_in_place$LT$std..sys..unix..locks..pthread_mutex..PthreadMutexAttr$GT$17he2976086f135d2f8E', symObjAddr: 0x79718, symBinAddr: 0x79AD4, symSize: 0x4 }
  - { offsetInCU: 0x1B8DD, offset: 0x7A88F, size: 0x8, addend: 0x0, symName: '__ZN58_$LT$std..io..error..Error$u20$as$u20$core..fmt..Debug$GT$3fmt17hbcff618564c44c20E', symObjAddr: 0x7971C, symBinAddr: 0x79AD8, symSize: 0x618 }
  - { offsetInCU: 0x1B919, offset: 0x7A8CB, size: 0x8, addend: 0x0, symName: '__ZN4core3ptr42drop_in_place$LT$alloc..string..String$GT$17h33c1b27dee0fa191E', symObjAddr: 0x79D34, symBinAddr: 0x7A0F0, symSize: 0x14 }
  - { offsetInCU: 0x1B921, offset: 0x7A8D3, size: 0x8, addend: 0x0, symName: '__ZN42_$LT$$RF$T$u20$as$u20$core..fmt..Debug$GT$3fmt17he1a9869e4898eeb0E', symObjAddr: 0x79D48, symBinAddr: 0x7A104, symSize: 0x10 }
  - { offsetInCU: 0x1B936, offset: 0x7A8E8, size: 0x8, addend: 0x0, symName: '__ZN4core3ptr42drop_in_place$LT$alloc..string..String$GT$17h33c1b27dee0fa191E', symObjAddr: 0x79D34, symBinAddr: 0x7A0F0, symSize: 0x14 }
  - { offsetInCU: 0x1B9EF, offset: 0x7A9A1, size: 0x8, addend: 0x0, symName: '__ZN4core3ptr107drop_in_place$LT$alloc..sync..Arc$LT$core..mem..maybe_uninit..MaybeUninit$LT$std..thread..Inner$GT$$GT$$GT$17h26dcca8860c64d64E', symObjAddr: 0x79ED4, symBinAddr: 0x7A254, symSize: 0x28 }
  - { offsetInCU: 0x1B9F7, offset: 0x7A9A9, size: 0x8, addend: 0x0, symName: '__ZN4core3ptr75drop_in_place$LT$core..option..Option$LT$alloc..ffi..c_str..CString$GT$$GT$17hfe2b65dc3f47bac3E', symObjAddr: 0x79EFC, symBinAddr: 0x7A27C, symSize: 0x14 }
  - { offsetInCU: 0x1BA14, offset: 0x7A9C6, size: 0x8, addend: 0x0, symName: '__ZN4core3ptr107drop_in_place$LT$alloc..sync..Arc$LT$core..mem..maybe_uninit..MaybeUninit$LT$std..thread..Inner$GT$$GT$$GT$17h26dcca8860c64d64E', symObjAddr: 0x79ED4, symBinAddr: 0x7A254, symSize: 0x28 }
  - { offsetInCU: 0x1BA2E, offset: 0x7A9E0, size: 0x8, addend: 0x0, symName: '__ZN4core3ptr107drop_in_place$LT$alloc..sync..Arc$LT$core..mem..maybe_uninit..MaybeUninit$LT$std..thread..Inner$GT$$GT$$GT$17h26dcca8860c64d64E', symObjAddr: 0x79ED4, symBinAddr: 0x7A254, symSize: 0x28 }
  - { offsetInCU: 0x1BA48, offset: 0x7A9FA, size: 0x8, addend: 0x0, symName: '__ZN4core3ptr107drop_in_place$LT$alloc..sync..Arc$LT$core..mem..maybe_uninit..MaybeUninit$LT$std..thread..Inner$GT$$GT$$GT$17h26dcca8860c64d64E', symObjAddr: 0x79ED4, symBinAddr: 0x7A254, symSize: 0x28 }
  - { offsetInCU: 0x1BAAF, offset: 0x7AA61, size: 0x8, addend: 0x0, symName: '__ZN4core3ptr75drop_in_place$LT$core..option..Option$LT$alloc..ffi..c_str..CString$GT$$GT$17hfe2b65dc3f47bac3E', symObjAddr: 0x79EFC, symBinAddr: 0x7A27C, symSize: 0x14 }
  - { offsetInCU: 0x1BAB7, offset: 0x7AA69, size: 0x8, addend: 0x0, symName: '__ZN5alloc4sync16Arc$LT$T$C$A$GT$9drop_slow17h3449ca710707635fE', symObjAddr: 0x79F10, symBinAddr: 0x7A290, symSize: 0x2C }
  - { offsetInCU: 0x1BBAC, offset: 0x7AB5E, size: 0x8, addend: 0x0, symName: '__ZN4core3ptr50drop_in_place$LT$alloc..borrow..Cow$LT$str$GT$$GT$17h4bcd884bf6d5b583E', symObjAddr: 0x7A600, symBinAddr: 0x7A980, symSize: 0x10 }
  - { offsetInCU: 0x1BBB4, offset: 0x7AB66, size: 0x8, addend: 0x0, symName: '__ZN44_$LT$$RF$T$u20$as$u20$core..fmt..Display$GT$3fmt17h99c24a464c8e32a9E', symObjAddr: 0x7A610, symBinAddr: 0x7A990, symSize: 0x10 }
  - { offsetInCU: 0x1BCAA, offset: 0x7AC5C, size: 0x8, addend: 0x0, symName: '__ZN4core3ptr46drop_in_place$LT$std..io..stdio..StdinLock$GT$17hbe30df6abe36c5b3E', symObjAddr: 0x7B460, symBinAddr: 0x7B6D8, symSize: 0x60 }
  - { offsetInCU: 0x1BCB2, offset: 0x7AC64, size: 0x8, addend: 0x0, symName: '__ZN4core3ptr88drop_in_place$LT$alloc..vec..Vec$LT$std..backtrace_rs..symbolize..gimli..Library$GT$$GT$17h44b842aa6a30dcc2E', symObjAddr: 0x7B4C0, symBinAddr: 0x7B738, symSize: 0x84 }
  - { offsetInCU: 0x1BCD7, offset: 0x7AC89, size: 0x8, addend: 0x0, symName: '__ZN4core3ptr88drop_in_place$LT$alloc..vec..Vec$LT$std..backtrace_rs..symbolize..gimli..Library$GT$$GT$17h44b842aa6a30dcc2E', symObjAddr: 0x7B4C0, symBinAddr: 0x7B738, symSize: 0x84 }
  - { offsetInCU: 0x1BCF1, offset: 0x7ACA3, size: 0x8, addend: 0x0, symName: '__ZN4core3ptr88drop_in_place$LT$alloc..vec..Vec$LT$std..backtrace_rs..symbolize..gimli..Library$GT$$GT$17h44b842aa6a30dcc2E', symObjAddr: 0x7B4C0, symBinAddr: 0x7B738, symSize: 0x84 }
  - { offsetInCU: 0x1BD7A, offset: 0x7AD2C, size: 0x8, addend: 0x0, symName: '__ZN4core3ptr88drop_in_place$LT$alloc..vec..Vec$LT$std..backtrace_rs..symbolize..gimli..Library$GT$$GT$17h44b842aa6a30dcc2E', symObjAddr: 0x7B4C0, symBinAddr: 0x7B738, symSize: 0x84 }
  - { offsetInCU: 0x1BD93, offset: 0x7AD45, size: 0x8, addend: 0x0, symName: '__ZN4core3ptr88drop_in_place$LT$alloc..vec..Vec$LT$std..backtrace_rs..symbolize..gimli..Library$GT$$GT$17h44b842aa6a30dcc2E', symObjAddr: 0x7B4C0, symBinAddr: 0x7B738, symSize: 0x84 }
  - { offsetInCU: 0x1BE88, offset: 0x7AE3A, size: 0x8, addend: 0x0, symName: '__ZN4core3ptr88drop_in_place$LT$alloc..vec..Vec$LT$std..backtrace_rs..symbolize..gimli..Library$GT$$GT$17h44b842aa6a30dcc2E', symObjAddr: 0x7B4C0, symBinAddr: 0x7B738, symSize: 0x84 }
  - { offsetInCU: 0x1BE90, offset: 0x7AE42, size: 0x8, addend: 0x0, symName: '__ZN4core3ptr104drop_in_place$LT$alloc..vec..Vec$LT$$LP$usize$C$std..backtrace_rs..symbolize..gimli..Mapping$RP$$GT$$GT$17h1ac38080e20d0d5bE', symObjAddr: 0x7B544, symBinAddr: 0x7B7BC, symSize: 0xAC }
  - { offsetInCU: 0x1C13E, offset: 0x7B0F0, size: 0x8, addend: 0x0, symName: '__ZN4core3ptr104drop_in_place$LT$alloc..vec..Vec$LT$$LP$usize$C$std..backtrace_rs..symbolize..gimli..Mapping$RP$$GT$$GT$17h1ac38080e20d0d5bE', symObjAddr: 0x7B544, symBinAddr: 0x7B7BC, symSize: 0xAC }
  - { offsetInCU: 0x1C146, offset: 0x7B0F8, size: 0x8, addend: 0x0, symName: '__ZN4core3ptr118drop_in_place$LT$alloc..vec..Vec$LT$$LP$gimli..common..DebugInfoOffset$C$gimli..common..DebugArangesOffset$RP$$GT$$GT$17h887ca0951685ff78E', symObjAddr: 0x7B5F0, symBinAddr: 0x7B868, symSize: 0xC }
  - { offsetInCU: 0x1C257, offset: 0x7B209, size: 0x8, addend: 0x0, symName: '__ZN4core3ptr118drop_in_place$LT$alloc..vec..Vec$LT$$LP$gimli..common..DebugInfoOffset$C$gimli..common..DebugArangesOffset$RP$$GT$$GT$17h887ca0951685ff78E', symObjAddr: 0x7B5F0, symBinAddr: 0x7B868, symSize: 0xC }
  - { offsetInCU: 0x1C25F, offset: 0x7B211, size: 0x8, addend: 0x0, symName: '__ZN5alloc7raw_vec19RawVec$LT$T$C$A$GT$7reserve21do_reserve_and_handle17h4d374a5f31be53cdE', symObjAddr: 0x7B5FC, symBinAddr: 0x1D4594, symSize: 0xD4 }
  - { offsetInCU: 0x1C274, offset: 0x7B226, size: 0x8, addend: 0x0, symName: '__ZN4core3ptr118drop_in_place$LT$alloc..vec..Vec$LT$$LP$gimli..common..DebugInfoOffset$C$gimli..common..DebugArangesOffset$RP$$GT$$GT$17h887ca0951685ff78E', symObjAddr: 0x7B5F0, symBinAddr: 0x7B868, symSize: 0xC }
  - { offsetInCU: 0x1C28E, offset: 0x7B240, size: 0x8, addend: 0x0, symName: '__ZN4core3ptr118drop_in_place$LT$alloc..vec..Vec$LT$$LP$gimli..common..DebugInfoOffset$C$gimli..common..DebugArangesOffset$RP$$GT$$GT$17h887ca0951685ff78E', symObjAddr: 0x7B5F0, symBinAddr: 0x7B868, symSize: 0xC }
  - { offsetInCU: 0x1C2A8, offset: 0x7B25A, size: 0x8, addend: 0x0, symName: '__ZN4core3ptr118drop_in_place$LT$alloc..vec..Vec$LT$$LP$gimli..common..DebugInfoOffset$C$gimli..common..DebugArangesOffset$RP$$GT$$GT$17h887ca0951685ff78E', symObjAddr: 0x7B5F0, symBinAddr: 0x7B868, symSize: 0xC }
  - { offsetInCU: 0x1C348, offset: 0x7B2FA, size: 0x8, addend: 0x0, symName: '__ZN4core3ptr95drop_in_place$LT$core..option..IntoIter$LT$std..backtrace_rs..symbolize..gimli..Library$GT$$GT$17h15e05c9b50d6d7ffE', symObjAddr: 0x7B6D0, symBinAddr: 0x7B874, symSize: 0x48 }
  - { offsetInCU: 0x1C350, offset: 0x7B302, size: 0x8, addend: 0x0, symName: '__ZN4core3ptr65drop_in_place$LT$std..backtrace_rs..symbolize..gimli..Mapping$GT$17h322c97f8cb92618bE', symObjAddr: 0x7B718, symBinAddr: 0x7B8BC, symSize: 0x104 }
  - { offsetInCU: 0x1C619, offset: 0x7B5CB, size: 0x8, addend: 0x0, symName: '__ZN4core3ptr65drop_in_place$LT$std..backtrace_rs..symbolize..gimli..Mapping$GT$17h322c97f8cb92618bE', symObjAddr: 0x7B718, symBinAddr: 0x7B8BC, symSize: 0x104 }
  - { offsetInCU: 0x1C621, offset: 0x7B5D3, size: 0x8, addend: 0x0, symName: '__ZN4core3ptr81drop_in_place$LT$$LP$usize$C$std..backtrace_rs..symbolize..gimli..Mapping$RP$$GT$17h99426f2c13a33394E', symObjAddr: 0x7B81C, symBinAddr: 0x7B9C0, symSize: 0x8 }
  - { offsetInCU: 0x1C9BB, offset: 0x7B96D, size: 0x8, addend: 0x0, symName: '__ZN4core3ptr81drop_in_place$LT$$LP$usize$C$std..backtrace_rs..symbolize..gimli..Mapping$RP$$GT$17h99426f2c13a33394E', symObjAddr: 0x7B81C, symBinAddr: 0x7B9C0, symSize: 0x8 }
  - { offsetInCU: 0x1C9C3, offset: 0x7B975, size: 0x8, addend: 0x0, symName: '__ZN4core3ptr111drop_in_place$LT$alloc..raw_vec..RawVec$LT$$LP$usize$C$std..backtrace_rs..symbolize..gimli..Mapping$RP$$GT$$GT$17he617f9b1c6a0ebcaE', symObjAddr: 0x7B824, symBinAddr: 0x7B9C8, symSize: 0xC }
  - { offsetInCU: 0x1C9D4, offset: 0x7B986, size: 0x8, addend: 0x0, symName: '__ZN4core3ptr111drop_in_place$LT$alloc..raw_vec..RawVec$LT$$LP$usize$C$std..backtrace_rs..symbolize..gimli..Mapping$RP$$GT$$GT$17he617f9b1c6a0ebcaE', symObjAddr: 0x7B824, symBinAddr: 0x7B9C8, symSize: 0xC }
  - { offsetInCU: 0x1C9DC, offset: 0x7B98E, size: 0x8, addend: 0x0, symName: __ZN3std12backtrace_rs9symbolize5gimli4mmap17hc073ba171fecc27dE, symObjAddr: 0x7B830, symBinAddr: 0x7B9D4, symSize: 0x2A0 }
  - { offsetInCU: 0x1C9F1, offset: 0x7B9A3, size: 0x8, addend: 0x0, symName: '__ZN4core3ptr111drop_in_place$LT$alloc..raw_vec..RawVec$LT$$LP$usize$C$std..backtrace_rs..symbolize..gimli..Mapping$RP$$GT$$GT$17he617f9b1c6a0ebcaE', symObjAddr: 0x7B824, symBinAddr: 0x7B9C8, symSize: 0xC }
  - { offsetInCU: 0x1CA0B, offset: 0x7B9BD, size: 0x8, addend: 0x0, symName: '__ZN4core3ptr111drop_in_place$LT$alloc..raw_vec..RawVec$LT$$LP$usize$C$std..backtrace_rs..symbolize..gimli..Mapping$RP$$GT$$GT$17he617f9b1c6a0ebcaE', symObjAddr: 0x7B824, symBinAddr: 0x7B9C8, symSize: 0xC }
  - { offsetInCU: 0x1CAE6, offset: 0x7BA98, size: 0x8, addend: 0x0, symName: '__ZN4core3ptr70drop_in_place$LT$std..backtrace_rs..symbolize..gimli..stash..Stash$GT$17hb40235d96ade4edbE', symObjAddr: 0x7BAD0, symBinAddr: 0x7BC74, symSize: 0xA8 }
  - { offsetInCU: 0x1CAEE, offset: 0x7BAA0, size: 0x8, addend: 0x0, symName: '__ZN4core3ptr68drop_in_place$LT$std..backtrace_rs..symbolize..gimli..mmap..Mmap$GT$17h92afd78e0d226eccE', symObjAddr: 0x7BB78, symBinAddr: 0x7BD1C, symSize: 0x4 }
  - { offsetInCU: 0x1CE22, offset: 0x7BDD4, size: 0x8, addend: 0x0, symName: '__ZN4core3ptr68drop_in_place$LT$std..backtrace_rs..symbolize..gimli..mmap..Mmap$GT$17h92afd78e0d226eccE', symObjAddr: 0x7BB78, symBinAddr: 0x7BD1C, symSize: 0x4 }
  - { offsetInCU: 0x1CE2A, offset: 0x7BDDC, size: 0x8, addend: 0x0, symName: __ZN3std12backtrace_rs9symbolize5gimli5macho11find_header17h733086c57938242cE, symObjAddr: 0x7BB7C, symBinAddr: 0x7BD20, symSize: 0x1C4 }
  - { offsetInCU: 0x1CE3F, offset: 0x7BDF1, size: 0x8, addend: 0x0, symName: '__ZN4core3ptr68drop_in_place$LT$std..backtrace_rs..symbolize..gimli..mmap..Mmap$GT$17h92afd78e0d226eccE', symObjAddr: 0x7BB78, symBinAddr: 0x7BD1C, symSize: 0x4 }
  - { offsetInCU: 0x1CE47, offset: 0x7BDF9, size: 0x8, addend: 0x0, symName: __ZN3std12backtrace_rs9symbolize5gimli5macho11find_header17h733086c57938242cE, symObjAddr: 0x7BB7C, symBinAddr: 0x7BD20, symSize: 0x1C4 }
  - { offsetInCU: 0x1D225, offset: 0x7C1D7, size: 0x8, addend: 0x0, symName: '__ZN4core3ptr89drop_in_place$LT$core..result..Result$LT$std..fs..ReadDir$C$std..io..error..Error$GT$$GT$17h994d72ac1758d9f9E', symObjAddr: 0x7FDA0, symBinAddr: 0x7FF44, symSize: 0xD0 }
  - { offsetInCU: 0x1D22D, offset: 0x7C1DF, size: 0x8, addend: 0x0, symName: '__ZN86_$LT$std..sys..unix..fs..ReadDir$u20$as$u20$core..iter..traits..iterator..Iterator$GT$4next17h958cca7cf5001308E', symObjAddr: 0x7FE70, symBinAddr: 0x80014, symSize: 0x144 }
  - { offsetInCU: 0x1D510, offset: 0x7C4C2, size: 0x8, addend: 0x0, symName: '__ZN4core3ptr37drop_in_place$LT$std..fs..ReadDir$GT$17h5613ff196b44d240E', symObjAddr: 0x7FFB4, symBinAddr: 0x80158, symSize: 0x28 }
  - { offsetInCU: 0x1D518, offset: 0x7C4CA, size: 0x8, addend: 0x0, symName: '__ZN5alloc4sync16Arc$LT$T$C$A$GT$9drop_slow17h93f86017003e80ddE', symObjAddr: 0x7FFDC, symBinAddr: 0x80180, symSize: 0x7C }
  - { offsetInCU: 0x1D52D, offset: 0x7C4DF, size: 0x8, addend: 0x0, symName: '__ZN4core3ptr37drop_in_place$LT$std..fs..ReadDir$GT$17h5613ff196b44d240E', symObjAddr: 0x7FFB4, symBinAddr: 0x80158, symSize: 0x28 }
  - { offsetInCU: 0x1D547, offset: 0x7C4F9, size: 0x8, addend: 0x0, symName: '__ZN4core3ptr37drop_in_place$LT$std..fs..ReadDir$GT$17h5613ff196b44d240E', symObjAddr: 0x7FFB4, symBinAddr: 0x80158, symSize: 0x28 }
  - { offsetInCU: 0x1D561, offset: 0x7C513, size: 0x8, addend: 0x0, symName: '__ZN4core3ptr37drop_in_place$LT$std..fs..ReadDir$GT$17h5613ff196b44d240E', symObjAddr: 0x7FFB4, symBinAddr: 0x80158, symSize: 0x28 }
  - { offsetInCU: 0x1D57B, offset: 0x7C52D, size: 0x8, addend: 0x0, symName: '__ZN4core3ptr37drop_in_place$LT$std..fs..ReadDir$GT$17h5613ff196b44d240E', symObjAddr: 0x7FFB4, symBinAddr: 0x80158, symSize: 0x28 }
  - { offsetInCU: 0x1D595, offset: 0x7C547, size: 0x8, addend: 0x0, symName: '__ZN4core3ptr37drop_in_place$LT$std..fs..ReadDir$GT$17h5613ff196b44d240E', symObjAddr: 0x7FFB4, symBinAddr: 0x80158, symSize: 0x28 }
  - { offsetInCU: 0x1D649, offset: 0x7C5FB, size: 0x8, addend: 0x0, symName: '__ZN4core3ptr90drop_in_place$LT$core..result..Result$LT$std..fs..DirEntry$C$std..io..error..Error$GT$$GT$17h48686246d12d841bE', symObjAddr: 0x80058, symBinAddr: 0x801FC, symSize: 0xC8 }
  - { offsetInCU: 0x1D651, offset: 0x7C603, size: 0x8, addend: 0x0, symName: '__ZN4core3ptr38drop_in_place$LT$std..fs..DirEntry$GT$17hda0ad07726faf08dE', symObjAddr: 0x80120, symBinAddr: 0x802C4, symSize: 0x28 }
  - { offsetInCU: 0x1D772, offset: 0x7C724, size: 0x8, addend: 0x0, symName: '__ZN4core3ptr38drop_in_place$LT$std..fs..DirEntry$GT$17hda0ad07726faf08dE', symObjAddr: 0x80120, symBinAddr: 0x802C4, symSize: 0x28 }
  - { offsetInCU: 0x1D78B, offset: 0x7C73D, size: 0x8, addend: 0x0, symName: '__ZN4core3ptr38drop_in_place$LT$std..fs..DirEntry$GT$17hda0ad07726faf08dE', symObjAddr: 0x80120, symBinAddr: 0x802C4, symSize: 0x28 }
  - { offsetInCU: 0x1D8F9, offset: 0x7C8AB, size: 0x8, addend: 0x0, symName: '__ZN4core3ptr38drop_in_place$LT$std..fs..DirEntry$GT$17hda0ad07726faf08dE', symObjAddr: 0x80120, symBinAddr: 0x802C4, symSize: 0x28 }
  - { offsetInCU: 0x1D901, offset: 0x7C8B3, size: 0x8, addend: 0x0, symName: __ZN3std4path4Path5_join17h3d0d4a57fdef5529E, symObjAddr: 0x80148, symBinAddr: 0x802EC, symSize: 0x170 }
  - { offsetInCU: 0x1D916, offset: 0x7C8C8, size: 0x8, addend: 0x0, symName: '__ZN4core3ptr38drop_in_place$LT$std..fs..DirEntry$GT$17hda0ad07726faf08dE', symObjAddr: 0x80120, symBinAddr: 0x802C4, symSize: 0x28 }
  - { offsetInCU: 0x1D930, offset: 0x7C8E2, size: 0x8, addend: 0x0, symName: '__ZN4core3ptr38drop_in_place$LT$std..fs..DirEntry$GT$17hda0ad07726faf08dE', symObjAddr: 0x80120, symBinAddr: 0x802C4, symSize: 0x28 }
  - { offsetInCU: 0x1D94A, offset: 0x7C8FC, size: 0x8, addend: 0x0, symName: '__ZN4core3ptr38drop_in_place$LT$std..fs..DirEntry$GT$17hda0ad07726faf08dE', symObjAddr: 0x80120, symBinAddr: 0x802C4, symSize: 0x28 }
  - { offsetInCU: 0x1D964, offset: 0x7C916, size: 0x8, addend: 0x0, symName: '__ZN4core3ptr38drop_in_place$LT$std..fs..DirEntry$GT$17hda0ad07726faf08dE', symObjAddr: 0x80120, symBinAddr: 0x802C4, symSize: 0x28 }
  - { offsetInCU: 0x1D97E, offset: 0x7C930, size: 0x8, addend: 0x0, symName: '__ZN4core3ptr38drop_in_place$LT$std..fs..DirEntry$GT$17hda0ad07726faf08dE', symObjAddr: 0x80120, symBinAddr: 0x802C4, symSize: 0x28 }
  - { offsetInCU: 0x1DA9B, offset: 0x7CA4D, size: 0x8, addend: 0x0, symName: '__ZN4core3ptr125drop_in_place$LT$addr2line..FrameIter$LT$gimli..read..endian_slice..EndianSlice$LT$gimli..endianity..LittleEndian$GT$$GT$$GT$17h15a889fcaed34f89E', symObjAddr: 0x80A28, symBinAddr: 0x80AEC, symSize: 0x24 }
  - { offsetInCU: 0x1DAA3, offset: 0x7CA55, size: 0x8, addend: 0x0, symName: __ZN6object4read7archive13ArchiveMember12parse_aixbig17h67bef42cd046e607E, symObjAddr: 0x80A4C, symBinAddr: 0x80B10, symSize: 0x1B4 }
  - { offsetInCU: 0x1DACE, offset: 0x7CA80, size: 0x8, addend: 0x0, symName: __ZN6object4read7archive13ArchiveMember12parse_aixbig17h67bef42cd046e607E, symObjAddr: 0x80A4C, symBinAddr: 0x80B10, symSize: 0x1B4 }
  - { offsetInCU: 0x1DAE8, offset: 0x7CA9A, size: 0x8, addend: 0x0, symName: __ZN6object4read7archive13ArchiveMember12parse_aixbig17h67bef42cd046e607E, symObjAddr: 0x80A4C, symBinAddr: 0x80B10, symSize: 0x1B4 }
  - { offsetInCU: 0x1DB02, offset: 0x7CAB4, size: 0x8, addend: 0x0, symName: __ZN6object4read7archive13ArchiveMember12parse_aixbig17h67bef42cd046e607E, symObjAddr: 0x80A4C, symBinAddr: 0x80B10, symSize: 0x1B4 }
  - { offsetInCU: 0x1DB1C, offset: 0x7CACE, size: 0x8, addend: 0x0, symName: __ZN6object4read7archive13ArchiveMember12parse_aixbig17h67bef42cd046e607E, symObjAddr: 0x80A4C, symBinAddr: 0x80B10, symSize: 0x1B4 }
  - { offsetInCU: 0x1DB36, offset: 0x7CAE8, size: 0x8, addend: 0x0, symName: __ZN6object4read7archive13ArchiveMember12parse_aixbig17h67bef42cd046e607E, symObjAddr: 0x80A4C, symBinAddr: 0x80B10, symSize: 0x1B4 }
  - { offsetInCU: 0x1DB50, offset: 0x7CB02, size: 0x8, addend: 0x0, symName: __ZN6object4read7archive13ArchiveMember12parse_aixbig17h67bef42cd046e607E, symObjAddr: 0x80A4C, symBinAddr: 0x80B10, symSize: 0x1B4 }
  - { offsetInCU: 0x1DB6A, offset: 0x7CB1C, size: 0x8, addend: 0x0, symName: __ZN6object4read7archive13ArchiveMember12parse_aixbig17h67bef42cd046e607E, symObjAddr: 0x80A4C, symBinAddr: 0x80B10, symSize: 0x1B4 }
  - { offsetInCU: 0x1DB84, offset: 0x7CB36, size: 0x8, addend: 0x0, symName: __ZN6object4read7archive13ArchiveMember12parse_aixbig17h67bef42cd046e607E, symObjAddr: 0x80A4C, symBinAddr: 0x80B10, symSize: 0x1B4 }
  - { offsetInCU: 0x1DB9E, offset: 0x7CB50, size: 0x8, addend: 0x0, symName: __ZN6object4read7archive13ArchiveMember12parse_aixbig17h67bef42cd046e607E, symObjAddr: 0x80A4C, symBinAddr: 0x80B10, symSize: 0x1B4 }
  - { offsetInCU: 0x1DBB8, offset: 0x7CB6A, size: 0x8, addend: 0x0, symName: __ZN6object4read7archive13ArchiveMember12parse_aixbig17h67bef42cd046e607E, symObjAddr: 0x80A4C, symBinAddr: 0x80B10, symSize: 0x1B4 }
  - { offsetInCU: 0x1DBD1, offset: 0x7CB83, size: 0x8, addend: 0x0, symName: __ZN6object4read7archive13ArchiveMember12parse_aixbig17h67bef42cd046e607E, symObjAddr: 0x80A4C, symBinAddr: 0x80B10, symSize: 0x1B4 }
  - { offsetInCU: 0x1DBEA, offset: 0x7CB9C, size: 0x8, addend: 0x0, symName: __ZN6object4read7archive13ArchiveMember12parse_aixbig17h67bef42cd046e607E, symObjAddr: 0x80A4C, symBinAddr: 0x80B10, symSize: 0x1B4 }
  - { offsetInCU: 0x1DDB8, offset: 0x7CD6A, size: 0x8, addend: 0x0, symName: '__ZN4core3ptr86drop_in_place$LT$core..result..Result$LT$addr2line..Lines$C$gimli..read..Error$GT$$GT$17haea45a42a3f574f1E', symObjAddr: 0x82F54, symBinAddr: 0x83018, symSize: 0xAC }
  - { offsetInCU: 0x1DDC0, offset: 0x7CD72, size: 0x8, addend: 0x0, symName: __ZN5gimli4read6reader6Reader12read_sleb12817hdf0a8a3b19c1ecc6E, symObjAddr: 0x83000, symBinAddr: 0x830C4, symSize: 0x224 }
  - { offsetInCU: 0x1E00A, offset: 0x7CFBC, size: 0x8, addend: 0x0, symName: __ZN5gimli4read6reader6Reader12read_sleb12817hdf0a8a3b19c1ecc6E, symObjAddr: 0x83000, symBinAddr: 0x830C4, symSize: 0x224 }
  - { offsetInCU: 0x1E024, offset: 0x7CFD6, size: 0x8, addend: 0x0, symName: __ZN5gimli4read6reader6Reader12read_sleb12817hdf0a8a3b19c1ecc6E, symObjAddr: 0x83000, symBinAddr: 0x830C4, symSize: 0x224 }
  - { offsetInCU: 0x1E03E, offset: 0x7CFF0, size: 0x8, addend: 0x0, symName: __ZN5gimli4read6reader6Reader12read_sleb12817hdf0a8a3b19c1ecc6E, symObjAddr: 0x83000, symBinAddr: 0x830C4, symSize: 0x224 }
  - { offsetInCU: 0x1E057, offset: 0x7D009, size: 0x8, addend: 0x0, symName: __ZN5gimli4read6reader6Reader12read_sleb12817hdf0a8a3b19c1ecc6E, symObjAddr: 0x83000, symBinAddr: 0x830C4, symSize: 0x224 }
  - { offsetInCU: 0x1E070, offset: 0x7D022, size: 0x8, addend: 0x0, symName: __ZN5gimli4read6reader6Reader12read_sleb12817hdf0a8a3b19c1ecc6E, symObjAddr: 0x83000, symBinAddr: 0x830C4, symSize: 0x224 }
  - { offsetInCU: 0x1E085, offset: 0x7D037, size: 0x8, addend: 0x0, symName: '__ZN4core3ptr275drop_in_place$LT$gimli..read..line..LineRows$LT$gimli..read..endian_slice..EndianSlice$LT$gimli..endianity..LittleEndian$GT$$C$gimli..read..line..IncompleteLineProgram$LT$gimli..read..endian_slice..EndianSlice$LT$gimli..endianity..LittleEndian$GT$$C$usize$GT$$C$usize$GT$$GT$17h6661730995cc1421E', symObjAddr: 0x832E4, symBinAddr: 0x833A8, symSize: 0x64 }
  - { offsetInCU: 0x1E08D, offset: 0x7D03F, size: 0x8, addend: 0x0, symName: '__ZN4core3ptr437drop_in_place$LT$core..slice..sort..merge_sort..BufGuard$LT$addr2line..UnitRange$C$alloc..slice..stable_sort$LT$addr2line..UnitRange$C$alloc..slice..$LT$impl$u20$$u5b$addr2line..UnitRange$u5d$$GT$..sort_by_key$LT$u64$C$addr2line..Context$LT$gimli..read..endian_slice..EndianSlice$LT$gimli..endianity..LittleEndian$GT$$GT$..parse_units..$u7b$$u7b$closure$u7d$$u7d$$GT$..$u7b$$u7b$closure$u7d$$u7d$$GT$..$u7b$$u7b$closure$u7d$$u7d$$GT$$GT$17hd6f521734d523b07E', symObjAddr: 0x83348, symBinAddr: 0x8340C, symSize: 0x4 }
  - { offsetInCU: 0x1E394, offset: 0x7D346, size: 0x8, addend: 0x0, symName: '__ZN4core3ptr437drop_in_place$LT$core..slice..sort..merge_sort..BufGuard$LT$addr2line..UnitRange$C$alloc..slice..stable_sort$LT$addr2line..UnitRange$C$alloc..slice..$LT$impl$u20$$u5b$addr2line..UnitRange$u5d$$GT$..sort_by_key$LT$u64$C$addr2line..Context$LT$gimli..read..endian_slice..EndianSlice$LT$gimli..endianity..LittleEndian$GT$$GT$..parse_units..$u7b$$u7b$closure$u7d$$u7d$$GT$..$u7b$$u7b$closure$u7d$$u7d$$GT$..$u7b$$u7b$closure$u7d$$u7d$$GT$$GT$17hd6f521734d523b07E', symObjAddr: 0x83348, symBinAddr: 0x8340C, symSize: 0x4 }
  - { offsetInCU: 0x1E39C, offset: 0x7D34E, size: 0x8, addend: 0x0, symName: '__ZN4core3ptr1031drop_in_place$LT$core..slice..sort..merge_sort..RunVec$LT$alloc..slice..stable_sort$LT$$LP$gimli..common..DebugInfoOffset$C$gimli..common..DebugArangesOffset$RP$$C$alloc..slice..$LT$impl$u20$$u5b$$LP$gimli..common..DebugInfoOffset$C$gimli..common..DebugArangesOffset$RP$$u5d$$GT$..sort_by_key$LT$gimli..common..DebugInfoOffset$C$addr2line..Context$LT$gimli..read..endian_slice..EndianSlice$LT$gimli..endianity..LittleEndian$GT$$GT$..parse_units..$u7b$$u7b$closure$u7d$$u7d$$GT$..$u7b$$u7b$closure$u7d$$u7d$$GT$..$u7b$$u7b$closure$u7d$$u7d$$C$alloc..slice..stable_sort$LT$$LP$gimli..common..DebugInfoOffset$C$gimli..common..DebugArangesOffset$RP$$C$alloc..slice..$LT$impl$u20$$u5b$$LP$gimli..common..DebugInfoOffset$C$gimli..common..DebugArangesOffset$RP$$u5d$$GT$..sort_by_key$LT$gimli..common..DebugInfoOffset$C$addr2line..Context$LT$gimli..read..endian_slice..EndianSlice$LT$gimli..endianity..LittleEndian$GT$$GT$..parse_units..$u7b$$u7b$closure$u7d$$u7d$$GT$..$u7b$$u7b$closure$u7d$$u7d$$GT$..$u7b$$u7b$closure$u7d$$u7d$$GT$$GT$17h728859d5a9577a7cE', symObjAddr: 0x8334C, symBinAddr: 0x83410, symSize: 0x4 }
  - { offsetInCU: 0x1E3B1, offset: 0x7D363, size: 0x8, addend: 0x0, symName: '__ZN4core3ptr437drop_in_place$LT$core..slice..sort..merge_sort..BufGuard$LT$addr2line..UnitRange$C$alloc..slice..stable_sort$LT$addr2line..UnitRange$C$alloc..slice..$LT$impl$u20$$u5b$addr2line..UnitRange$u5d$$GT$..sort_by_key$LT$u64$C$addr2line..Context$LT$gimli..read..endian_slice..EndianSlice$LT$gimli..endianity..LittleEndian$GT$$GT$..parse_units..$u7b$$u7b$closure$u7d$$u7d$$GT$..$u7b$$u7b$closure$u7d$$u7d$$GT$..$u7b$$u7b$closure$u7d$$u7d$$GT$$GT$17hd6f521734d523b07E', symObjAddr: 0x83348, symBinAddr: 0x8340C, symSize: 0x4 }
  - { offsetInCU: 0x1E3B9, offset: 0x7D36B, size: 0x8, addend: 0x0, symName: '__ZN4core3ptr1031drop_in_place$LT$core..slice..sort..merge_sort..RunVec$LT$alloc..slice..stable_sort$LT$$LP$gimli..common..DebugInfoOffset$C$gimli..common..DebugArangesOffset$RP$$C$alloc..slice..$LT$impl$u20$$u5b$$LP$gimli..common..DebugInfoOffset$C$gimli..common..DebugArangesOffset$RP$$u5d$$GT$..sort_by_key$LT$gimli..common..DebugInfoOffset$C$addr2line..Context$LT$gimli..read..endian_slice..EndianSlice$LT$gimli..endianity..LittleEndian$GT$$GT$..parse_units..$u7b$$u7b$closure$u7d$$u7d$$GT$..$u7b$$u7b$closure$u7d$$u7d$$GT$..$u7b$$u7b$closure$u7d$$u7d$$C$alloc..slice..stable_sort$LT$$LP$gimli..common..DebugInfoOffset$C$gimli..common..DebugArangesOffset$RP$$C$alloc..slice..$LT$impl$u20$$u5b$$LP$gimli..common..DebugInfoOffset$C$gimli..common..DebugArangesOffset$RP$$u5d$$GT$..sort_by_key$LT$gimli..common..DebugInfoOffset$C$addr2line..Context$LT$gimli..read..endian_slice..EndianSlice$LT$gimli..endianity..LittleEndian$GT$$GT$..parse_units..$u7b$$u7b$closure$u7d$$u7d$$GT$..$u7b$$u7b$closure$u7d$$u7d$$GT$..$u7b$$u7b$closure$u7d$$u7d$$GT$$GT$17h728859d5a9577a7cE', symObjAddr: 0x8334C, symBinAddr: 0x83410, symSize: 0x4 }
  - { offsetInCU: 0x1E3CB, offset: 0x7D37D, size: 0x8, addend: 0x0, symName: '__ZN4core3ptr437drop_in_place$LT$core..slice..sort..merge_sort..BufGuard$LT$addr2line..UnitRange$C$alloc..slice..stable_sort$LT$addr2line..UnitRange$C$alloc..slice..$LT$impl$u20$$u5b$addr2line..UnitRange$u5d$$GT$..sort_by_key$LT$u64$C$addr2line..Context$LT$gimli..read..endian_slice..EndianSlice$LT$gimli..endianity..LittleEndian$GT$$GT$..parse_units..$u7b$$u7b$closure$u7d$$u7d$$GT$..$u7b$$u7b$closure$u7d$$u7d$$GT$..$u7b$$u7b$closure$u7d$$u7d$$GT$$GT$17hd6f521734d523b07E', symObjAddr: 0x83348, symBinAddr: 0x8340C, symSize: 0x4 }
  - { offsetInCU: 0x1E3D3, offset: 0x7D385, size: 0x8, addend: 0x0, symName: '__ZN4core3ptr1031drop_in_place$LT$core..slice..sort..merge_sort..RunVec$LT$alloc..slice..stable_sort$LT$$LP$gimli..common..DebugInfoOffset$C$gimli..common..DebugArangesOffset$RP$$C$alloc..slice..$LT$impl$u20$$u5b$$LP$gimli..common..DebugInfoOffset$C$gimli..common..DebugArangesOffset$RP$$u5d$$GT$..sort_by_key$LT$gimli..common..DebugInfoOffset$C$addr2line..Context$LT$gimli..read..endian_slice..EndianSlice$LT$gimli..endianity..LittleEndian$GT$$GT$..parse_units..$u7b$$u7b$closure$u7d$$u7d$$GT$..$u7b$$u7b$closure$u7d$$u7d$$GT$..$u7b$$u7b$closure$u7d$$u7d$$C$alloc..slice..stable_sort$LT$$LP$gimli..common..DebugInfoOffset$C$gimli..common..DebugArangesOffset$RP$$C$alloc..slice..$LT$impl$u20$$u5b$$LP$gimli..common..DebugInfoOffset$C$gimli..common..DebugArangesOffset$RP$$u5d$$GT$..sort_by_key$LT$gimli..common..DebugInfoOffset$C$addr2line..Context$LT$gimli..read..endian_slice..EndianSlice$LT$gimli..endianity..LittleEndian$GT$$GT$..parse_units..$u7b$$u7b$closure$u7d$$u7d$$GT$..$u7b$$u7b$closure$u7d$$u7d$$GT$..$u7b$$u7b$closure$u7d$$u7d$$GT$$GT$17h728859d5a9577a7cE', symObjAddr: 0x8334C, symBinAddr: 0x83410, symSize: 0x4 }
  - { offsetInCU: 0x1E3E5, offset: 0x7D397, size: 0x8, addend: 0x0, symName: '__ZN4core3ptr437drop_in_place$LT$core..slice..sort..merge_sort..BufGuard$LT$addr2line..UnitRange$C$alloc..slice..stable_sort$LT$addr2line..UnitRange$C$alloc..slice..$LT$impl$u20$$u5b$addr2line..UnitRange$u5d$$GT$..sort_by_key$LT$u64$C$addr2line..Context$LT$gimli..read..endian_slice..EndianSlice$LT$gimli..endianity..LittleEndian$GT$$GT$..parse_units..$u7b$$u7b$closure$u7d$$u7d$$GT$..$u7b$$u7b$closure$u7d$$u7d$$GT$..$u7b$$u7b$closure$u7d$$u7d$$GT$$GT$17hd6f521734d523b07E', symObjAddr: 0x83348, symBinAddr: 0x8340C, symSize: 0x4 }
  - { offsetInCU: 0x1E3ED, offset: 0x7D39F, size: 0x8, addend: 0x0, symName: '__ZN4core3ptr1031drop_in_place$LT$core..slice..sort..merge_sort..RunVec$LT$alloc..slice..stable_sort$LT$$LP$gimli..common..DebugInfoOffset$C$gimli..common..DebugArangesOffset$RP$$C$alloc..slice..$LT$impl$u20$$u5b$$LP$gimli..common..DebugInfoOffset$C$gimli..common..DebugArangesOffset$RP$$u5d$$GT$..sort_by_key$LT$gimli..common..DebugInfoOffset$C$addr2line..Context$LT$gimli..read..endian_slice..EndianSlice$LT$gimli..endianity..LittleEndian$GT$$GT$..parse_units..$u7b$$u7b$closure$u7d$$u7d$$GT$..$u7b$$u7b$closure$u7d$$u7d$$GT$..$u7b$$u7b$closure$u7d$$u7d$$C$alloc..slice..stable_sort$LT$$LP$gimli..common..DebugInfoOffset$C$gimli..common..DebugArangesOffset$RP$$C$alloc..slice..$LT$impl$u20$$u5b$$LP$gimli..common..DebugInfoOffset$C$gimli..common..DebugArangesOffset$RP$$u5d$$GT$..sort_by_key$LT$gimli..common..DebugInfoOffset$C$addr2line..Context$LT$gimli..read..endian_slice..EndianSlice$LT$gimli..endianity..LittleEndian$GT$$GT$..parse_units..$u7b$$u7b$closure$u7d$$u7d$$GT$..$u7b$$u7b$closure$u7d$$u7d$$GT$..$u7b$$u7b$closure$u7d$$u7d$$GT$$GT$17h728859d5a9577a7cE', symObjAddr: 0x8334C, symBinAddr: 0x83410, symSize: 0x4 }
  - { offsetInCU: 0x1E3FF, offset: 0x7D3B1, size: 0x8, addend: 0x0, symName: '__ZN4core3ptr437drop_in_place$LT$core..slice..sort..merge_sort..BufGuard$LT$addr2line..UnitRange$C$alloc..slice..stable_sort$LT$addr2line..UnitRange$C$alloc..slice..$LT$impl$u20$$u5b$addr2line..UnitRange$u5d$$GT$..sort_by_key$LT$u64$C$addr2line..Context$LT$gimli..read..endian_slice..EndianSlice$LT$gimli..endianity..LittleEndian$GT$$GT$..parse_units..$u7b$$u7b$closure$u7d$$u7d$$GT$..$u7b$$u7b$closure$u7d$$u7d$$GT$..$u7b$$u7b$closure$u7d$$u7d$$GT$$GT$17hd6f521734d523b07E', symObjAddr: 0x83348, symBinAddr: 0x8340C, symSize: 0x4 }
  - { offsetInCU: 0x1E407, offset: 0x7D3B9, size: 0x8, addend: 0x0, symName: '__ZN4core3ptr1031drop_in_place$LT$core..slice..sort..merge_sort..RunVec$LT$alloc..slice..stable_sort$LT$$LP$gimli..common..DebugInfoOffset$C$gimli..common..DebugArangesOffset$RP$$C$alloc..slice..$LT$impl$u20$$u5b$$LP$gimli..common..DebugInfoOffset$C$gimli..common..DebugArangesOffset$RP$$u5d$$GT$..sort_by_key$LT$gimli..common..DebugInfoOffset$C$addr2line..Context$LT$gimli..read..endian_slice..EndianSlice$LT$gimli..endianity..LittleEndian$GT$$GT$..parse_units..$u7b$$u7b$closure$u7d$$u7d$$GT$..$u7b$$u7b$closure$u7d$$u7d$$GT$..$u7b$$u7b$closure$u7d$$u7d$$C$alloc..slice..stable_sort$LT$$LP$gimli..common..DebugInfoOffset$C$gimli..common..DebugArangesOffset$RP$$C$alloc..slice..$LT$impl$u20$$u5b$$LP$gimli..common..DebugInfoOffset$C$gimli..common..DebugArangesOffset$RP$$u5d$$GT$..sort_by_key$LT$gimli..common..DebugInfoOffset$C$addr2line..Context$LT$gimli..read..endian_slice..EndianSlice$LT$gimli..endianity..LittleEndian$GT$$GT$..parse_units..$u7b$$u7b$closure$u7d$$u7d$$GT$..$u7b$$u7b$closure$u7d$$u7d$$GT$..$u7b$$u7b$closure$u7d$$u7d$$GT$$GT$17h728859d5a9577a7cE', symObjAddr: 0x8334C, symBinAddr: 0x83410, symSize: 0x4 }
  - { offsetInCU: 0x1E418, offset: 0x7D3CA, size: 0x8, addend: 0x0, symName: '__ZN4core3ptr437drop_in_place$LT$core..slice..sort..merge_sort..BufGuard$LT$addr2line..UnitRange$C$alloc..slice..stable_sort$LT$addr2line..UnitRange$C$alloc..slice..$LT$impl$u20$$u5b$addr2line..UnitRange$u5d$$GT$..sort_by_key$LT$u64$C$addr2line..Context$LT$gimli..read..endian_slice..EndianSlice$LT$gimli..endianity..LittleEndian$GT$$GT$..parse_units..$u7b$$u7b$closure$u7d$$u7d$$GT$..$u7b$$u7b$closure$u7d$$u7d$$GT$..$u7b$$u7b$closure$u7d$$u7d$$GT$$GT$17hd6f521734d523b07E', symObjAddr: 0x83348, symBinAddr: 0x8340C, symSize: 0x4 }
  - { offsetInCU: 0x1E420, offset: 0x7D3D2, size: 0x8, addend: 0x0, symName: '__ZN4core3ptr1031drop_in_place$LT$core..slice..sort..merge_sort..RunVec$LT$alloc..slice..stable_sort$LT$$LP$gimli..common..DebugInfoOffset$C$gimli..common..DebugArangesOffset$RP$$C$alloc..slice..$LT$impl$u20$$u5b$$LP$gimli..common..DebugInfoOffset$C$gimli..common..DebugArangesOffset$RP$$u5d$$GT$..sort_by_key$LT$gimli..common..DebugInfoOffset$C$addr2line..Context$LT$gimli..read..endian_slice..EndianSlice$LT$gimli..endianity..LittleEndian$GT$$GT$..parse_units..$u7b$$u7b$closure$u7d$$u7d$$GT$..$u7b$$u7b$closure$u7d$$u7d$$GT$..$u7b$$u7b$closure$u7d$$u7d$$C$alloc..slice..stable_sort$LT$$LP$gimli..common..DebugInfoOffset$C$gimli..common..DebugArangesOffset$RP$$C$alloc..slice..$LT$impl$u20$$u5b$$LP$gimli..common..DebugInfoOffset$C$gimli..common..DebugArangesOffset$RP$$u5d$$GT$..sort_by_key$LT$gimli..common..DebugInfoOffset$C$addr2line..Context$LT$gimli..read..endian_slice..EndianSlice$LT$gimli..endianity..LittleEndian$GT$$GT$..parse_units..$u7b$$u7b$closure$u7d$$u7d$$GT$..$u7b$$u7b$closure$u7d$$u7d$$GT$..$u7b$$u7b$closure$u7d$$u7d$$GT$$GT$17h728859d5a9577a7cE', symObjAddr: 0x8334C, symBinAddr: 0x83410, symSize: 0x4 }
  - { offsetInCU: 0x1E433, offset: 0x7D3E5, size: 0x8, addend: 0x0, symName: '__ZN4core3ptr1031drop_in_place$LT$core..slice..sort..merge_sort..RunVec$LT$alloc..slice..stable_sort$LT$$LP$gimli..common..DebugInfoOffset$C$gimli..common..DebugArangesOffset$RP$$C$alloc..slice..$LT$impl$u20$$u5b$$LP$gimli..common..DebugInfoOffset$C$gimli..common..DebugArangesOffset$RP$$u5d$$GT$..sort_by_key$LT$gimli..common..DebugInfoOffset$C$addr2line..Context$LT$gimli..read..endian_slice..EndianSlice$LT$gimli..endianity..LittleEndian$GT$$GT$..parse_units..$u7b$$u7b$closure$u7d$$u7d$$GT$..$u7b$$u7b$closure$u7d$$u7d$$GT$..$u7b$$u7b$closure$u7d$$u7d$$C$alloc..slice..stable_sort$LT$$LP$gimli..common..DebugInfoOffset$C$gimli..common..DebugArangesOffset$RP$$C$alloc..slice..$LT$impl$u20$$u5b$$LP$gimli..common..DebugInfoOffset$C$gimli..common..DebugArangesOffset$RP$$u5d$$GT$..sort_by_key$LT$gimli..common..DebugInfoOffset$C$addr2line..Context$LT$gimli..read..endian_slice..EndianSlice$LT$gimli..endianity..LittleEndian$GT$$GT$..parse_units..$u7b$$u7b$closure$u7d$$u7d$$GT$..$u7b$$u7b$closure$u7d$$u7d$$GT$..$u7b$$u7b$closure$u7d$$u7d$$GT$$GT$17h728859d5a9577a7cE', symObjAddr: 0x8334C, symBinAddr: 0x83410, symSize: 0x4 }
  - { offsetInCU: 0x1E43B, offset: 0x7D3ED, size: 0x8, addend: 0x0, symName: __ZN4core5slice4sort25insertion_sort_shift_left17h08bda739155dc484E, symObjAddr: 0x83350, symBinAddr: 0x83414, symSize: 0xD8 }
  - { offsetInCU: 0x1E450, offset: 0x7D402, size: 0x8, addend: 0x0, symName: '__ZN4core3ptr1031drop_in_place$LT$core..slice..sort..merge_sort..RunVec$LT$alloc..slice..stable_sort$LT$$LP$gimli..common..DebugInfoOffset$C$gimli..common..DebugArangesOffset$RP$$C$alloc..slice..$LT$impl$u20$$u5b$$LP$gimli..common..DebugInfoOffset$C$gimli..common..DebugArangesOffset$RP$$u5d$$GT$..sort_by_key$LT$gimli..common..DebugInfoOffset$C$addr2line..Context$LT$gimli..read..endian_slice..EndianSlice$LT$gimli..endianity..LittleEndian$GT$$GT$..parse_units..$u7b$$u7b$closure$u7d$$u7d$$GT$..$u7b$$u7b$closure$u7d$$u7d$$GT$..$u7b$$u7b$closure$u7d$$u7d$$C$alloc..slice..stable_sort$LT$$LP$gimli..common..DebugInfoOffset$C$gimli..common..DebugArangesOffset$RP$$C$alloc..slice..$LT$impl$u20$$u5b$$LP$gimli..common..DebugInfoOffset$C$gimli..common..DebugArangesOffset$RP$$u5d$$GT$..sort_by_key$LT$gimli..common..DebugInfoOffset$C$addr2line..Context$LT$gimli..read..endian_slice..EndianSlice$LT$gimli..endianity..LittleEndian$GT$$GT$..parse_units..$u7b$$u7b$closure$u7d$$u7d$$GT$..$u7b$$u7b$closure$u7d$$u7d$$GT$..$u7b$$u7b$closure$u7d$$u7d$$GT$$GT$17h728859d5a9577a7cE', symObjAddr: 0x8334C, symBinAddr: 0x83410, symSize: 0x4 }
  - { offsetInCU: 0x1E458, offset: 0x7D40A, size: 0x8, addend: 0x0, symName: __ZN4core5slice4sort25insertion_sort_shift_left17h08bda739155dc484E, symObjAddr: 0x83350, symBinAddr: 0x83414, symSize: 0xD8 }
  - { offsetInCU: 0x1E46A, offset: 0x7D41C, size: 0x8, addend: 0x0, symName: '__ZN4core3ptr1031drop_in_place$LT$core..slice..sort..merge_sort..RunVec$LT$alloc..slice..stable_sort$LT$$LP$gimli..common..DebugInfoOffset$C$gimli..common..DebugArangesOffset$RP$$C$alloc..slice..$LT$impl$u20$$u5b$$LP$gimli..common..DebugInfoOffset$C$gimli..common..DebugArangesOffset$RP$$u5d$$GT$..sort_by_key$LT$gimli..common..DebugInfoOffset$C$addr2line..Context$LT$gimli..read..endian_slice..EndianSlice$LT$gimli..endianity..LittleEndian$GT$$GT$..parse_units..$u7b$$u7b$closure$u7d$$u7d$$GT$..$u7b$$u7b$closure$u7d$$u7d$$GT$..$u7b$$u7b$closure$u7d$$u7d$$C$alloc..slice..stable_sort$LT$$LP$gimli..common..DebugInfoOffset$C$gimli..common..DebugArangesOffset$RP$$C$alloc..slice..$LT$impl$u20$$u5b$$LP$gimli..common..DebugInfoOffset$C$gimli..common..DebugArangesOffset$RP$$u5d$$GT$..sort_by_key$LT$gimli..common..DebugInfoOffset$C$addr2line..Context$LT$gimli..read..endian_slice..EndianSlice$LT$gimli..endianity..LittleEndian$GT$$GT$..parse_units..$u7b$$u7b$closure$u7d$$u7d$$GT$..$u7b$$u7b$closure$u7d$$u7d$$GT$..$u7b$$u7b$closure$u7d$$u7d$$GT$$GT$17h728859d5a9577a7cE', symObjAddr: 0x8334C, symBinAddr: 0x83410, symSize: 0x4 }
  - { offsetInCU: 0x1E472, offset: 0x7D424, size: 0x8, addend: 0x0, symName: __ZN4core5slice4sort25insertion_sort_shift_left17h08bda739155dc484E, symObjAddr: 0x83350, symBinAddr: 0x83414, symSize: 0xD8 }
  - { offsetInCU: 0x1E484, offset: 0x7D436, size: 0x8, addend: 0x0, symName: '__ZN4core3ptr1031drop_in_place$LT$core..slice..sort..merge_sort..RunVec$LT$alloc..slice..stable_sort$LT$$LP$gimli..common..DebugInfoOffset$C$gimli..common..DebugArangesOffset$RP$$C$alloc..slice..$LT$impl$u20$$u5b$$LP$gimli..common..DebugInfoOffset$C$gimli..common..DebugArangesOffset$RP$$u5d$$GT$..sort_by_key$LT$gimli..common..DebugInfoOffset$C$addr2line..Context$LT$gimli..read..endian_slice..EndianSlice$LT$gimli..endianity..LittleEndian$GT$$GT$..parse_units..$u7b$$u7b$closure$u7d$$u7d$$GT$..$u7b$$u7b$closure$u7d$$u7d$$GT$..$u7b$$u7b$closure$u7d$$u7d$$C$alloc..slice..stable_sort$LT$$LP$gimli..common..DebugInfoOffset$C$gimli..common..DebugArangesOffset$RP$$C$alloc..slice..$LT$impl$u20$$u5b$$LP$gimli..common..DebugInfoOffset$C$gimli..common..DebugArangesOffset$RP$$u5d$$GT$..sort_by_key$LT$gimli..common..DebugInfoOffset$C$addr2line..Context$LT$gimli..read..endian_slice..EndianSlice$LT$gimli..endianity..LittleEndian$GT$$GT$..parse_units..$u7b$$u7b$closure$u7d$$u7d$$GT$..$u7b$$u7b$closure$u7d$$u7d$$GT$..$u7b$$u7b$closure$u7d$$u7d$$GT$$GT$17h728859d5a9577a7cE', symObjAddr: 0x8334C, symBinAddr: 0x83410, symSize: 0x4 }
  - { offsetInCU: 0x1E48C, offset: 0x7D43E, size: 0x8, addend: 0x0, symName: __ZN4core5slice4sort25insertion_sort_shift_left17h08bda739155dc484E, symObjAddr: 0x83350, symBinAddr: 0x83414, symSize: 0xD8 }
  - { offsetInCU: 0x1E49E, offset: 0x7D450, size: 0x8, addend: 0x0, symName: '__ZN4core3ptr1031drop_in_place$LT$core..slice..sort..merge_sort..RunVec$LT$alloc..slice..stable_sort$LT$$LP$gimli..common..DebugInfoOffset$C$gimli..common..DebugArangesOffset$RP$$C$alloc..slice..$LT$impl$u20$$u5b$$LP$gimli..common..DebugInfoOffset$C$gimli..common..DebugArangesOffset$RP$$u5d$$GT$..sort_by_key$LT$gimli..common..DebugInfoOffset$C$addr2line..Context$LT$gimli..read..endian_slice..EndianSlice$LT$gimli..endianity..LittleEndian$GT$$GT$..parse_units..$u7b$$u7b$closure$u7d$$u7d$$GT$..$u7b$$u7b$closure$u7d$$u7d$$GT$..$u7b$$u7b$closure$u7d$$u7d$$C$alloc..slice..stable_sort$LT$$LP$gimli..common..DebugInfoOffset$C$gimli..common..DebugArangesOffset$RP$$C$alloc..slice..$LT$impl$u20$$u5b$$LP$gimli..common..DebugInfoOffset$C$gimli..common..DebugArangesOffset$RP$$u5d$$GT$..sort_by_key$LT$gimli..common..DebugInfoOffset$C$addr2line..Context$LT$gimli..read..endian_slice..EndianSlice$LT$gimli..endianity..LittleEndian$GT$$GT$..parse_units..$u7b$$u7b$closure$u7d$$u7d$$GT$..$u7b$$u7b$closure$u7d$$u7d$$GT$..$u7b$$u7b$closure$u7d$$u7d$$GT$$GT$17h728859d5a9577a7cE', symObjAddr: 0x8334C, symBinAddr: 0x83410, symSize: 0x4 }
  - { offsetInCU: 0x1E4A6, offset: 0x7D458, size: 0x8, addend: 0x0, symName: __ZN4core5slice4sort25insertion_sort_shift_left17h08bda739155dc484E, symObjAddr: 0x83350, symBinAddr: 0x83414, symSize: 0xD8 }
  - { offsetInCU: 0x1E4B7, offset: 0x7D469, size: 0x8, addend: 0x0, symName: '__ZN4core3ptr1031drop_in_place$LT$core..slice..sort..merge_sort..RunVec$LT$alloc..slice..stable_sort$LT$$LP$gimli..common..DebugInfoOffset$C$gimli..common..DebugArangesOffset$RP$$C$alloc..slice..$LT$impl$u20$$u5b$$LP$gimli..common..DebugInfoOffset$C$gimli..common..DebugArangesOffset$RP$$u5d$$GT$..sort_by_key$LT$gimli..common..DebugInfoOffset$C$addr2line..Context$LT$gimli..read..endian_slice..EndianSlice$LT$gimli..endianity..LittleEndian$GT$$GT$..parse_units..$u7b$$u7b$closure$u7d$$u7d$$GT$..$u7b$$u7b$closure$u7d$$u7d$$GT$..$u7b$$u7b$closure$u7d$$u7d$$C$alloc..slice..stable_sort$LT$$LP$gimli..common..DebugInfoOffset$C$gimli..common..DebugArangesOffset$RP$$C$alloc..slice..$LT$impl$u20$$u5b$$LP$gimli..common..DebugInfoOffset$C$gimli..common..DebugArangesOffset$RP$$u5d$$GT$..sort_by_key$LT$gimli..common..DebugInfoOffset$C$addr2line..Context$LT$gimli..read..endian_slice..EndianSlice$LT$gimli..endianity..LittleEndian$GT$$GT$..parse_units..$u7b$$u7b$closure$u7d$$u7d$$GT$..$u7b$$u7b$closure$u7d$$u7d$$GT$..$u7b$$u7b$closure$u7d$$u7d$$GT$$GT$17h728859d5a9577a7cE', symObjAddr: 0x8334C, symBinAddr: 0x83410, symSize: 0x4 }
  - { offsetInCU: 0x1E4BF, offset: 0x7D471, size: 0x8, addend: 0x0, symName: __ZN4core5slice4sort25insertion_sort_shift_left17h08bda739155dc484E, symObjAddr: 0x83350, symBinAddr: 0x83414, symSize: 0xD8 }
  - { offsetInCU: 0x1E4F0, offset: 0x7D4A2, size: 0x8, addend: 0x0, symName: '__ZN4core3ptr65drop_in_place$LT$alloc..vec..Vec$LT$alloc..string..String$GT$$GT$17hd512c16649897099E', symObjAddr: 0x835B8, symBinAddr: 0x8367C, symSize: 0x74 }
  - { offsetInCU: 0x1E4F8, offset: 0x7D4AA, size: 0x8, addend: 0x0, symName: __ZN9addr2line11render_file17h406a1e16b38ee553E, symObjAddr: 0x8362C, symBinAddr: 0x836F0, symSize: 0x29C }
  - { offsetInCU: 0x1E6BA, offset: 0x7D66C, size: 0x8, addend: 0x0, symName: '__ZN4core3ptr67drop_in_place$LT$alloc..vec..Vec$LT$addr2line..LineSequence$GT$$GT$17h813a6a89a5c2ef1eE', symObjAddr: 0x838C8, symBinAddr: 0x8398C, symSize: 0x74 }
  - { offsetInCU: 0x1E6C2, offset: 0x7D674, size: 0x8, addend: 0x0, symName: '__ZN4core3ptr77drop_in_place$LT$alloc..boxed..Box$LT$$u5b$alloc..string..String$u5d$$GT$$GT$17hc29e983f2eea121eE', symObjAddr: 0x8393C, symBinAddr: 0x83A00, symSize: 0x5C }
  - { offsetInCU: 0x1E858, offset: 0x7D80A, size: 0x8, addend: 0x0, symName: '__ZN4core3ptr77drop_in_place$LT$alloc..boxed..Box$LT$$u5b$alloc..string..String$u5d$$GT$$GT$17hc29e983f2eea121eE', symObjAddr: 0x8393C, symBinAddr: 0x83A00, symSize: 0x5C }
  - { offsetInCU: 0x1E860, offset: 0x7D812, size: 0x8, addend: 0x0, symName: '__ZN90_$LT$gimli..read..unit..AttributeValue$LT$R$C$Offset$GT$$u20$as$u20$core..clone..Clone$GT$5clone17hd6e3dfc6cf9f7520E', symObjAddr: 0x83998, symBinAddr: 0x83A5C, symSize: 0x68 }
  - { offsetInCU: 0x1E874, offset: 0x7D826, size: 0x8, addend: 0x0, symName: '__ZN4core3ptr77drop_in_place$LT$alloc..boxed..Box$LT$$u5b$alloc..string..String$u5d$$GT$$GT$17hc29e983f2eea121eE', symObjAddr: 0x8393C, symBinAddr: 0x83A00, symSize: 0x5C }
  - { offsetInCU: 0x1EC93, offset: 0x7DC45, size: 0x8, addend: 0x0, symName: '__ZN4core3ptr174drop_in_place$LT$core..result..Result$LT$addr2line..FrameIter$LT$gimli..read..endian_slice..EndianSlice$LT$gimli..endianity..LittleEndian$GT$$GT$$C$gimli..read..Error$GT$$GT$17h4585b46a19f33e14E', symObjAddr: 0x8693C, symBinAddr: 0x86A00, symSize: 0x24 }
  - { offsetInCU: 0x1EC9B, offset: 0x7DC4D, size: 0x8, addend: 0x0, symName: '__ZN4core3ptr60drop_in_place$LT$gimli..read..abbrev..AbbreviationsCache$GT$17h4b8981bb3c00b12eE', symObjAddr: 0x86960, symBinAddr: 0x86A24, symSize: 0x2C }
  - { offsetInCU: 0x1ECC0, offset: 0x7DC72, size: 0x8, addend: 0x0, symName: '__ZN4core3ptr60drop_in_place$LT$gimli..read..abbrev..AbbreviationsCache$GT$17h4b8981bb3c00b12eE', symObjAddr: 0x86960, symBinAddr: 0x86A24, symSize: 0x2C }
  - { offsetInCU: 0x1ECDA, offset: 0x7DC8C, size: 0x8, addend: 0x0, symName: '__ZN4core3ptr60drop_in_place$LT$gimli..read..abbrev..AbbreviationsCache$GT$17h4b8981bb3c00b12eE', symObjAddr: 0x86960, symBinAddr: 0x86A24, symSize: 0x2C }
  - { offsetInCU: 0x1ECF4, offset: 0x7DCA6, size: 0x8, addend: 0x0, symName: '__ZN4core3ptr60drop_in_place$LT$gimli..read..abbrev..AbbreviationsCache$GT$17h4b8981bb3c00b12eE', symObjAddr: 0x86960, symBinAddr: 0x86A24, symSize: 0x2C }
  - { offsetInCU: 0x1ED0E, offset: 0x7DCC0, size: 0x8, addend: 0x0, symName: '__ZN4core3ptr60drop_in_place$LT$gimli..read..abbrev..AbbreviationsCache$GT$17h4b8981bb3c00b12eE', symObjAddr: 0x86960, symBinAddr: 0x86A24, symSize: 0x2C }
  - { offsetInCU: 0x1ED28, offset: 0x7DCDA, size: 0x8, addend: 0x0, symName: '__ZN4core3ptr60drop_in_place$LT$gimli..read..abbrev..AbbreviationsCache$GT$17h4b8981bb3c00b12eE', symObjAddr: 0x86960, symBinAddr: 0x86A24, symSize: 0x2C }
  - { offsetInCU: 0x1ED42, offset: 0x7DCF4, size: 0x8, addend: 0x0, symName: '__ZN4core3ptr60drop_in_place$LT$gimli..read..abbrev..AbbreviationsCache$GT$17h4b8981bb3c00b12eE', symObjAddr: 0x86960, symBinAddr: 0x86A24, symSize: 0x2C }
  - { offsetInCU: 0x1ED5C, offset: 0x7DD0E, size: 0x8, addend: 0x0, symName: '__ZN4core3ptr60drop_in_place$LT$gimli..read..abbrev..AbbreviationsCache$GT$17h4b8981bb3c00b12eE', symObjAddr: 0x86960, symBinAddr: 0x86A24, symSize: 0x2C }
  - { offsetInCU: 0x1ED76, offset: 0x7DD28, size: 0x8, addend: 0x0, symName: '__ZN4core3ptr60drop_in_place$LT$gimli..read..abbrev..AbbreviationsCache$GT$17h4b8981bb3c00b12eE', symObjAddr: 0x86960, symBinAddr: 0x86A24, symSize: 0x2C }
  - { offsetInCU: 0x1ED90, offset: 0x7DD42, size: 0x8, addend: 0x0, symName: '__ZN4core3ptr60drop_in_place$LT$gimli..read..abbrev..AbbreviationsCache$GT$17h4b8981bb3c00b12eE', symObjAddr: 0x86960, symBinAddr: 0x86A24, symSize: 0x2C }
  - { offsetInCU: 0x1EDAA, offset: 0x7DD5C, size: 0x8, addend: 0x0, symName: '__ZN4core3ptr60drop_in_place$LT$gimli..read..abbrev..AbbreviationsCache$GT$17h4b8981bb3c00b12eE', symObjAddr: 0x86960, symBinAddr: 0x86A24, symSize: 0x2C }
  - { offsetInCU: 0x1EDC4, offset: 0x7DD76, size: 0x8, addend: 0x0, symName: '__ZN4core3ptr60drop_in_place$LT$gimli..read..abbrev..AbbreviationsCache$GT$17h4b8981bb3c00b12eE', symObjAddr: 0x86960, symBinAddr: 0x86A24, symSize: 0x2C }
  - { offsetInCU: 0x1EDDE, offset: 0x7DD90, size: 0x8, addend: 0x0, symName: '__ZN4core3ptr60drop_in_place$LT$gimli..read..abbrev..AbbreviationsCache$GT$17h4b8981bb3c00b12eE', symObjAddr: 0x86960, symBinAddr: 0x86A24, symSize: 0x2C }
  - { offsetInCU: 0x1EDF7, offset: 0x7DDA9, size: 0x8, addend: 0x0, symName: '__ZN4core3ptr60drop_in_place$LT$gimli..read..abbrev..AbbreviationsCache$GT$17h4b8981bb3c00b12eE', symObjAddr: 0x86960, symBinAddr: 0x86A24, symSize: 0x2C }
  - { offsetInCU: 0x1EE10, offset: 0x7DDC2, size: 0x8, addend: 0x0, symName: '__ZN4core3ptr60drop_in_place$LT$gimli..read..abbrev..AbbreviationsCache$GT$17h4b8981bb3c00b12eE', symObjAddr: 0x86960, symBinAddr: 0x86A24, symSize: 0x2C }
  - { offsetInCU: 0x1EE2C, offset: 0x7DDDE, size: 0x8, addend: 0x0, symName: '__ZN4core3ptr60drop_in_place$LT$gimli..read..abbrev..AbbreviationsCache$GT$17h4b8981bb3c00b12eE', symObjAddr: 0x86960, symBinAddr: 0x86A24, symSize: 0x2C }
  - { offsetInCU: 0x1EE34, offset: 0x7DDE6, size: 0x8, addend: 0x0, symName: '__ZN5alloc4sync16Arc$LT$T$C$A$GT$9drop_slow17h563a95246b38a5f9E', symObjAddr: 0x8698C, symBinAddr: 0x86A50, symSize: 0x13C }
  - { offsetInCU: 0x1EE49, offset: 0x7DDFB, size: 0x8, addend: 0x0, symName: '__ZN4core3ptr60drop_in_place$LT$gimli..read..abbrev..AbbreviationsCache$GT$17h4b8981bb3c00b12eE', symObjAddr: 0x86960, symBinAddr: 0x86A24, symSize: 0x2C }
  - { offsetInCU: 0x1EE63, offset: 0x7DE15, size: 0x8, addend: 0x0, symName: '__ZN4core3ptr60drop_in_place$LT$gimli..read..abbrev..AbbreviationsCache$GT$17h4b8981bb3c00b12eE', symObjAddr: 0x86960, symBinAddr: 0x86A24, symSize: 0x2C }
  - { offsetInCU: 0x1EE7D, offset: 0x7DE2F, size: 0x8, addend: 0x0, symName: '__ZN4core3ptr60drop_in_place$LT$gimli..read..abbrev..AbbreviationsCache$GT$17h4b8981bb3c00b12eE', symObjAddr: 0x86960, symBinAddr: 0x86A24, symSize: 0x2C }
  - { offsetInCU: 0x1EE96, offset: 0x7DE48, size: 0x8, addend: 0x0, symName: '__ZN4core3ptr60drop_in_place$LT$gimli..read..abbrev..AbbreviationsCache$GT$17h4b8981bb3c00b12eE', symObjAddr: 0x86960, symBinAddr: 0x86A24, symSize: 0x2C }
  - { offsetInCU: 0x1F0E1, offset: 0x7E093, size: 0x8, addend: 0x0, symName: '__ZN4core3ptr72drop_in_place$LT$alloc..collections..btree..mem..replace..PanicGuard$GT$17h291aec5f126a2b85E', symObjAddr: 0x86C68, symBinAddr: 0x86D2C, symSize: 0x4 }
  - { offsetInCU: 0x1F0E9, offset: 0x7E09B, size: 0x8, addend: 0x0, symName: '__ZN5alloc7raw_vec19RawVec$LT$T$C$A$GT$16reserve_for_push17h14874c8f61deaad4E', symObjAddr: 0x86C6C, symBinAddr: 0x86D30, symSize: 0xC0 }
  - { offsetInCU: 0x1F10B, offset: 0x7E0BD, size: 0x8, addend: 0x0, symName: '__ZN4core3ptr72drop_in_place$LT$alloc..collections..btree..mem..replace..PanicGuard$GT$17h291aec5f126a2b85E', symObjAddr: 0x86C68, symBinAddr: 0x86D2C, symSize: 0x4 }
  - { offsetInCU: 0x1F113, offset: 0x7E0C5, size: 0x8, addend: 0x0, symName: '__ZN5alloc7raw_vec19RawVec$LT$T$C$A$GT$16reserve_for_push17h14874c8f61deaad4E', symObjAddr: 0x86C6C, symBinAddr: 0x86D30, symSize: 0xC0 }
  - { offsetInCU: 0x1F122, offset: 0x7E0D4, size: 0x8, addend: 0x0, symName: '__ZN4core3ptr130drop_in_place$LT$addr2line..SplitDwarfLoad$LT$gimli..read..endian_slice..EndianSlice$LT$gimli..endianity..LittleEndian$GT$$GT$$GT$17h43d571067a9fa8b8E', symObjAddr: 0x86D2C, symBinAddr: 0x86DF0, symSize: 0x24 }
  - { offsetInCU: 0x1F12A, offset: 0x7E0DC, size: 0x8, addend: 0x0, symName: '__ZN4core3ptr491drop_in_place$LT$core..slice..sort..merge_sort..BufGuard$LT$addr2line..function..FunctionAddress$C$alloc..slice..stable_sort$LT$addr2line..function..FunctionAddress$C$alloc..slice..$LT$impl$u20$$u5b$addr2line..function..FunctionAddress$u5d$$GT$..sort_by_key$LT$u64$C$addr2line..function..Functions$LT$gimli..read..endian_slice..EndianSlice$LT$gimli..endianity..LittleEndian$GT$$GT$..parse..$u7b$$u7b$closure$u7d$$u7d$$GT$..$u7b$$u7b$closure$u7d$$u7d$$GT$..$u7b$$u7b$closure$u7d$$u7d$$GT$$GT$17h1fe2f115bff2de1dE', symObjAddr: 0x86D50, symBinAddr: 0x86E14, symSize: 0x4 }
  - { offsetInCU: 0x1F13F, offset: 0x7E0F1, size: 0x8, addend: 0x0, symName: '__ZN4core3ptr130drop_in_place$LT$addr2line..SplitDwarfLoad$LT$gimli..read..endian_slice..EndianSlice$LT$gimli..endianity..LittleEndian$GT$$GT$$GT$17h43d571067a9fa8b8E', symObjAddr: 0x86D2C, symBinAddr: 0x86DF0, symSize: 0x24 }
  - { offsetInCU: 0x1F159, offset: 0x7E10B, size: 0x8, addend: 0x0, symName: '__ZN4core3ptr130drop_in_place$LT$addr2line..SplitDwarfLoad$LT$gimli..read..endian_slice..EndianSlice$LT$gimli..endianity..LittleEndian$GT$$GT$$GT$17h43d571067a9fa8b8E', symObjAddr: 0x86D2C, symBinAddr: 0x86DF0, symSize: 0x24 }
  - { offsetInCU: 0x1F173, offset: 0x7E125, size: 0x8, addend: 0x0, symName: '__ZN4core3ptr130drop_in_place$LT$addr2line..SplitDwarfLoad$LT$gimli..read..endian_slice..EndianSlice$LT$gimli..endianity..LittleEndian$GT$$GT$$GT$17h43d571067a9fa8b8E', symObjAddr: 0x86D2C, symBinAddr: 0x86DF0, symSize: 0x24 }
  - { offsetInCU: 0x1F18D, offset: 0x7E13F, size: 0x8, addend: 0x0, symName: '__ZN4core3ptr130drop_in_place$LT$addr2line..SplitDwarfLoad$LT$gimli..read..endian_slice..EndianSlice$LT$gimli..endianity..LittleEndian$GT$$GT$$GT$17h43d571067a9fa8b8E', symObjAddr: 0x86D2C, symBinAddr: 0x86DF0, symSize: 0x24 }
  - { offsetInCU: 0x1F1F5, offset: 0x7E1A7, size: 0x8, addend: 0x0, symName: '__ZN4core3ptr491drop_in_place$LT$core..slice..sort..merge_sort..BufGuard$LT$addr2line..function..FunctionAddress$C$alloc..slice..stable_sort$LT$addr2line..function..FunctionAddress$C$alloc..slice..$LT$impl$u20$$u5b$addr2line..function..FunctionAddress$u5d$$GT$..sort_by_key$LT$u64$C$addr2line..function..Functions$LT$gimli..read..endian_slice..EndianSlice$LT$gimli..endianity..LittleEndian$GT$$GT$..parse..$u7b$$u7b$closure$u7d$$u7d$$GT$..$u7b$$u7b$closure$u7d$$u7d$$GT$..$u7b$$u7b$closure$u7d$$u7d$$GT$$GT$17h1fe2f115bff2de1dE', symObjAddr: 0x86D50, symBinAddr: 0x86E14, symSize: 0x4 }
  - { offsetInCU: 0x1F1FD, offset: 0x7E1AF, size: 0x8, addend: 0x0, symName: __ZN4core5slice4sort25insertion_sort_shift_left17h2e002670ab2cdd4bE, symObjAddr: 0x86D54, symBinAddr: 0x86E18, symSize: 0xE8 }
  - { offsetInCU: 0x1F212, offset: 0x7E1C4, size: 0x8, addend: 0x0, symName: '__ZN4core3ptr491drop_in_place$LT$core..slice..sort..merge_sort..BufGuard$LT$addr2line..function..FunctionAddress$C$alloc..slice..stable_sort$LT$addr2line..function..FunctionAddress$C$alloc..slice..$LT$impl$u20$$u5b$addr2line..function..FunctionAddress$u5d$$GT$..sort_by_key$LT$u64$C$addr2line..function..Functions$LT$gimli..read..endian_slice..EndianSlice$LT$gimli..endianity..LittleEndian$GT$$GT$..parse..$u7b$$u7b$closure$u7d$$u7d$$GT$..$u7b$$u7b$closure$u7d$$u7d$$GT$..$u7b$$u7b$closure$u7d$$u7d$$GT$$GT$17h1fe2f115bff2de1dE', symObjAddr: 0x86D50, symBinAddr: 0x86E14, symSize: 0x4 }
  - { offsetInCU: 0x1F21A, offset: 0x7E1CC, size: 0x8, addend: 0x0, symName: __ZN4core5slice4sort25insertion_sort_shift_left17h2e002670ab2cdd4bE, symObjAddr: 0x86D54, symBinAddr: 0x86E18, symSize: 0xE8 }
  - { offsetInCU: 0x1F22C, offset: 0x7E1DE, size: 0x8, addend: 0x0, symName: '__ZN4core3ptr491drop_in_place$LT$core..slice..sort..merge_sort..BufGuard$LT$addr2line..function..FunctionAddress$C$alloc..slice..stable_sort$LT$addr2line..function..FunctionAddress$C$alloc..slice..$LT$impl$u20$$u5b$addr2line..function..FunctionAddress$u5d$$GT$..sort_by_key$LT$u64$C$addr2line..function..Functions$LT$gimli..read..endian_slice..EndianSlice$LT$gimli..endianity..LittleEndian$GT$$GT$..parse..$u7b$$u7b$closure$u7d$$u7d$$GT$..$u7b$$u7b$closure$u7d$$u7d$$GT$..$u7b$$u7b$closure$u7d$$u7d$$GT$$GT$17h1fe2f115bff2de1dE', symObjAddr: 0x86D50, symBinAddr: 0x86E14, symSize: 0x4 }
  - { offsetInCU: 0x1F234, offset: 0x7E1E6, size: 0x8, addend: 0x0, symName: __ZN4core5slice4sort25insertion_sort_shift_left17h2e002670ab2cdd4bE, symObjAddr: 0x86D54, symBinAddr: 0x86E18, symSize: 0xE8 }
  - { offsetInCU: 0x1F246, offset: 0x7E1F8, size: 0x8, addend: 0x0, symName: '__ZN4core3ptr491drop_in_place$LT$core..slice..sort..merge_sort..BufGuard$LT$addr2line..function..FunctionAddress$C$alloc..slice..stable_sort$LT$addr2line..function..FunctionAddress$C$alloc..slice..$LT$impl$u20$$u5b$addr2line..function..FunctionAddress$u5d$$GT$..sort_by_key$LT$u64$C$addr2line..function..Functions$LT$gimli..read..endian_slice..EndianSlice$LT$gimli..endianity..LittleEndian$GT$$GT$..parse..$u7b$$u7b$closure$u7d$$u7d$$GT$..$u7b$$u7b$closure$u7d$$u7d$$GT$..$u7b$$u7b$closure$u7d$$u7d$$GT$$GT$17h1fe2f115bff2de1dE', symObjAddr: 0x86D50, symBinAddr: 0x86E14, symSize: 0x4 }
  - { offsetInCU: 0x1F24E, offset: 0x7E200, size: 0x8, addend: 0x0, symName: __ZN4core5slice4sort25insertion_sort_shift_left17h2e002670ab2cdd4bE, symObjAddr: 0x86D54, symBinAddr: 0x86E18, symSize: 0xE8 }
  - { offsetInCU: 0x1F260, offset: 0x7E212, size: 0x8, addend: 0x0, symName: '__ZN4core3ptr491drop_in_place$LT$core..slice..sort..merge_sort..BufGuard$LT$addr2line..function..FunctionAddress$C$alloc..slice..stable_sort$LT$addr2line..function..FunctionAddress$C$alloc..slice..$LT$impl$u20$$u5b$addr2line..function..FunctionAddress$u5d$$GT$..sort_by_key$LT$u64$C$addr2line..function..Functions$LT$gimli..read..endian_slice..EndianSlice$LT$gimli..endianity..LittleEndian$GT$$GT$..parse..$u7b$$u7b$closure$u7d$$u7d$$GT$..$u7b$$u7b$closure$u7d$$u7d$$GT$..$u7b$$u7b$closure$u7d$$u7d$$GT$$GT$17h1fe2f115bff2de1dE', symObjAddr: 0x86D50, symBinAddr: 0x86E14, symSize: 0x4 }
  - { offsetInCU: 0x1F268, offset: 0x7E21A, size: 0x8, addend: 0x0, symName: __ZN4core5slice4sort25insertion_sort_shift_left17h2e002670ab2cdd4bE, symObjAddr: 0x86D54, symBinAddr: 0x86E18, symSize: 0xE8 }
  - { offsetInCU: 0x1F279, offset: 0x7E22B, size: 0x8, addend: 0x0, symName: '__ZN4core3ptr491drop_in_place$LT$core..slice..sort..merge_sort..BufGuard$LT$addr2line..function..FunctionAddress$C$alloc..slice..stable_sort$LT$addr2line..function..FunctionAddress$C$alloc..slice..$LT$impl$u20$$u5b$addr2line..function..FunctionAddress$u5d$$GT$..sort_by_key$LT$u64$C$addr2line..function..Functions$LT$gimli..read..endian_slice..EndianSlice$LT$gimli..endianity..LittleEndian$GT$$GT$..parse..$u7b$$u7b$closure$u7d$$u7d$$GT$..$u7b$$u7b$closure$u7d$$u7d$$GT$..$u7b$$u7b$closure$u7d$$u7d$$GT$$GT$17h1fe2f115bff2de1dE', symObjAddr: 0x86D50, symBinAddr: 0x86E14, symSize: 0x4 }
  - { offsetInCU: 0x1F281, offset: 0x7E233, size: 0x8, addend: 0x0, symName: __ZN4core5slice4sort25insertion_sort_shift_left17h2e002670ab2cdd4bE, symObjAddr: 0x86D54, symBinAddr: 0x86E18, symSize: 0xE8 }
  - { offsetInCU: 0x1F2B2, offset: 0x7E264, size: 0x8, addend: 0x0, symName: '__ZN4core3ptr285drop_in_place$LT$alloc..boxed..Box$LT$$u5b$$LP$gimli..read..UnitOffset$C$addr2line..lazy..LazyCell$LT$core..result..Result$LT$addr2line..function..Function$LT$gimli..read..endian_slice..EndianSlice$LT$gimli..endianity..LittleEndian$GT$$GT$$C$gimli..read..Error$GT$$GT$$RP$$u5d$$GT$$GT$17h4aeaecba37ed8f5aE', symObjAddr: 0x86E3C, symBinAddr: 0x86F00, symSize: 0x78 }
  - { offsetInCU: 0x1F2BA, offset: 0x7E26C, size: 0x8, addend: 0x0, symName: __ZN5gimli4read4unit15skip_attributes17h7a08e22cfe9a53b9E, symObjAddr: 0x86EB4, symBinAddr: 0x86F78, symSize: 0x528 }
  - { offsetInCU: 0x1F2CE, offset: 0x7E280, size: 0x8, addend: 0x0, symName: '__ZN4core3ptr285drop_in_place$LT$alloc..boxed..Box$LT$$u5b$$LP$gimli..read..UnitOffset$C$addr2line..lazy..LazyCell$LT$core..result..Result$LT$addr2line..function..Function$LT$gimli..read..endian_slice..EndianSlice$LT$gimli..endianity..LittleEndian$GT$$GT$$C$gimli..read..Error$GT$$GT$$RP$$u5d$$GT$$GT$17h4aeaecba37ed8f5aE', symObjAddr: 0x86E3C, symBinAddr: 0x86F00, symSize: 0x78 }
  - { offsetInCU: 0x1F502, offset: 0x7E4B4, size: 0x8, addend: 0x0, symName: '__ZN4core3ptr250drop_in_place$LT$$LP$gimli..read..UnitOffset$C$addr2line..lazy..LazyCell$LT$core..result..Result$LT$addr2line..function..Function$LT$gimli..read..endian_slice..EndianSlice$LT$gimli..endianity..LittleEndian$GT$$GT$$C$gimli..read..Error$GT$$GT$$RP$$GT$17hb8a35d34f9ed8bd0E', symObjAddr: 0x8902C, symBinAddr: 0x890F0, symSize: 0x50 }
  - { offsetInCU: 0x1F50A, offset: 0x7E4BC, size: 0x8, addend: 0x0, symName: '__ZN5gimli4read4unit18Attribute$LT$R$GT$5value17h24915129fc10903fE', symObjAddr: 0x8907C, symBinAddr: 0x89140, symSize: 0x3C0 }
  - { offsetInCU: 0x1F6C8, offset: 0x7E67A, size: 0x8, addend: 0x0, symName: '__ZN4core3ptr273drop_in_place$LT$alloc..vec..Vec$LT$$LP$gimli..read..UnitOffset$C$addr2line..lazy..LazyCell$LT$core..result..Result$LT$addr2line..function..Function$LT$gimli..read..endian_slice..EndianSlice$LT$gimli..endianity..LittleEndian$GT$$GT$$C$gimli..read..Error$GT$$GT$$RP$$GT$$GT$17h8c31cf9c0921a92bE', symObjAddr: 0x8943C, symBinAddr: 0x89500, symSize: 0x90 }
  - { offsetInCU: 0x1F6D0, offset: 0x7E682, size: 0x8, addend: 0x0, symName: '__ZN4core3ptr184drop_in_place$LT$core..result..Result$LT$addr2line..function..Functions$LT$gimli..read..endian_slice..EndianSlice$LT$gimli..endianity..LittleEndian$GT$$GT$$C$gimli..read..Error$GT$$GT$17h31c44fb79472df48E', symObjAddr: 0x894CC, symBinAddr: 0x89590, symSize: 0x9C }
  - { offsetInCU: 0x1F968, offset: 0x7E91A, size: 0x8, addend: 0x0, symName: '__ZN4core3ptr184drop_in_place$LT$core..result..Result$LT$addr2line..function..Functions$LT$gimli..read..endian_slice..EndianSlice$LT$gimli..endianity..LittleEndian$GT$$GT$$C$gimli..read..Error$GT$$GT$17h31c44fb79472df48E', symObjAddr: 0x894CC, symBinAddr: 0x89590, symSize: 0x9C }
  - { offsetInCU: 0x1F970, offset: 0x7E922, size: 0x8, addend: 0x0, symName: '__ZN9addr2line8function17Function$LT$R$GT$14parse_children17hf0c934c329f1ef83E', symObjAddr: 0x89568, symBinAddr: 0x8962C, symSize: 0x10E8 }
  - { offsetInCU: 0x1FCDE, offset: 0x7EC90, size: 0x8, addend: 0x0, symName: '__ZN4core3ptr82drop_in_place$LT$alloc..sync..ArcInner$LT$std..sys..unix..fs..InnerReadDir$GT$$GT$17hf7dd87cc01488943E', symObjAddr: 0x8B960, symBinAddr: 0x8B998, symSize: 0x50 }
  - { offsetInCU: 0x1FCE6, offset: 0x7EC98, size: 0x8, addend: 0x0, symName: __ZN3std12backtrace_rs9symbolize5gimli5macho6Object7section17hafcddec50a433ff7E, symObjAddr: 0x8B9B0, symBinAddr: 0x8B9E8, symSize: 0x300 }
  - { offsetInCU: 0x1FE1D, offset: 0x7EDCF, size: 0x8, addend: 0x0, symName: '__ZN4core3ptr159drop_in_place$LT$alloc..sync..ArcInner$LT$gimli..read..dwarf..Dwarf$LT$gimli..read..endian_slice..EndianSlice$LT$gimli..endianity..LittleEndian$GT$$GT$$GT$$GT$17hc12e908c4945f7e1E', symObjAddr: 0x8BCB0, symBinAddr: 0x8BCE8, symSize: 0x8C }
  - { offsetInCU: 0x1FE25, offset: 0x7EDD7, size: 0x8, addend: 0x0, symName: '__ZN5gimli4read7aranges30ArangeHeader$LT$R$C$Offset$GT$5parse17hddc5fb21d7b5546cE', symObjAddr: 0x8BD3C, symBinAddr: 0x8BD74, symSize: 0x2B8 }
  - { offsetInCU: 0x200C1, offset: 0x7F073, size: 0x8, addend: 0x0, symName: '__ZN4core3ptr181drop_in_place$LT$core..option..Option$LT$gimli..read..line..IncompleteLineProgram$LT$gimli..read..endian_slice..EndianSlice$LT$gimli..endianity..LittleEndian$GT$$C$usize$GT$$GT$$GT$17h61d12f302b1ebec7E', symObjAddr: 0x8DFE8, symBinAddr: 0x8E020, symSize: 0x70 }
  - { offsetInCU: 0x200C9, offset: 0x7F07B, size: 0x8, addend: 0x0, symName: '__ZN5alloc7raw_vec19RawVec$LT$T$C$A$GT$16reserve_for_push17ha1de6ea2eab46aebE', symObjAddr: 0x8E058, symBinAddr: 0x8E090, symSize: 0xD4 }
  - { offsetInCU: 0x20457, offset: 0x7F409, size: 0x8, addend: 0x0, symName: '__ZN4core3ptr123drop_in_place$LT$addr2line..ResUnit$LT$gimli..read..endian_slice..EndianSlice$LT$gimli..endianity..LittleEndian$GT$$GT$$GT$17h831838c0a4d7218cE', symObjAddr: 0x8E12C, symBinAddr: 0x8E164, symSize: 0x178 }
  - { offsetInCU: 0x2045F, offset: 0x7F411, size: 0x8, addend: 0x0, symName: '__ZN9addr2line4lazy17LazyCell$LT$T$GT$11borrow_with17h4e735436b800e79eE', symObjAddr: 0x8E2A4, symBinAddr: 0x8E2DC, symSize: 0x10C }
  - { offsetInCU: 0x20BF9, offset: 0x7FBAB, size: 0x8, addend: 0x0, symName: '__ZN4core3ptr119drop_in_place$LT$addr2line..lazy..LazyCell$LT$core..result..Result$LT$addr2line..Lines$C$gimli..read..Error$GT$$GT$$GT$17h290a4009db5ded8eE', symObjAddr: 0x8E3B0, symBinAddr: 0x8E3E8, symSize: 0xB4 }
  - { offsetInCU: 0x20C01, offset: 0x7FBB3, size: 0x8, addend: 0x0, symName: '__ZN4core3ptr137drop_in_place$LT$gimli..read..dwarf..Unit$LT$gimli..read..endian_slice..EndianSlice$LT$gimli..endianity..LittleEndian$GT$$C$usize$GT$$GT$17h76d2034341932a11E', symObjAddr: 0x8E464, symBinAddr: 0x8E49C, symSize: 0xA8 }
  - { offsetInCU: 0x20E75, offset: 0x7FE27, size: 0x8, addend: 0x0, symName: '__ZN4core3ptr137drop_in_place$LT$gimli..read..dwarf..Unit$LT$gimli..read..endian_slice..EndianSlice$LT$gimli..endianity..LittleEndian$GT$$C$usize$GT$$GT$17h76d2034341932a11E', symObjAddr: 0x8E464, symBinAddr: 0x8E49C, symSize: 0xA8 }
  - { offsetInCU: 0x20E8F, offset: 0x7FE41, size: 0x8, addend: 0x0, symName: '__ZN4core3ptr137drop_in_place$LT$gimli..read..dwarf..Unit$LT$gimli..read..endian_slice..EndianSlice$LT$gimli..endianity..LittleEndian$GT$$C$usize$GT$$GT$17h76d2034341932a11E', symObjAddr: 0x8E464, symBinAddr: 0x8E49C, symSize: 0xA8 }
  - { offsetInCU: 0x20EA9, offset: 0x7FE5B, size: 0x8, addend: 0x0, symName: '__ZN4core3ptr137drop_in_place$LT$gimli..read..dwarf..Unit$LT$gimli..read..endian_slice..EndianSlice$LT$gimli..endianity..LittleEndian$GT$$C$usize$GT$$GT$17h76d2034341932a11E', symObjAddr: 0x8E464, symBinAddr: 0x8E49C, symSize: 0xA8 }
  - { offsetInCU: 0x20EC2, offset: 0x7FE74, size: 0x8, addend: 0x0, symName: '__ZN4core3ptr137drop_in_place$LT$gimli..read..dwarf..Unit$LT$gimli..read..endian_slice..EndianSlice$LT$gimli..endianity..LittleEndian$GT$$C$usize$GT$$GT$17h76d2034341932a11E', symObjAddr: 0x8E464, symBinAddr: 0x8E49C, symSize: 0xA8 }
  - { offsetInCU: 0x20EDB, offset: 0x7FE8D, size: 0x8, addend: 0x0, symName: '__ZN4core3ptr137drop_in_place$LT$gimli..read..dwarf..Unit$LT$gimli..read..endian_slice..EndianSlice$LT$gimli..endianity..LittleEndian$GT$$C$usize$GT$$GT$17h76d2034341932a11E', symObjAddr: 0x8E464, symBinAddr: 0x8E49C, symSize: 0xA8 }
  - { offsetInCU: 0x20EF3, offset: 0x7FEA5, size: 0x8, addend: 0x0, symName: '__ZN4core3ptr137drop_in_place$LT$gimli..read..dwarf..Unit$LT$gimli..read..endian_slice..EndianSlice$LT$gimli..endianity..LittleEndian$GT$$C$usize$GT$$GT$17h76d2034341932a11E', symObjAddr: 0x8E464, symBinAddr: 0x8E49C, symSize: 0xA8 }
  - { offsetInCU: 0x20EFB, offset: 0x7FEAD, size: 0x8, addend: 0x0, symName: __ZN4core5slice4sort25insertion_sort_shift_left17h028719f79745e617E, symObjAddr: 0x8E50C, symBinAddr: 0x8E544, symSize: 0xE0 }
  - { offsetInCU: 0x212F4, offset: 0x802A6, size: 0x8, addend: 0x0, symName: '__ZN4core3ptr146drop_in_place$LT$alloc..vec..Vec$LT$addr2line..ResUnit$LT$gimli..read..endian_slice..EndianSlice$LT$gimli..endianity..LittleEndian$GT$$GT$$GT$$GT$17h3a1884d4e20bb0d0E', symObjAddr: 0x8E5EC, symBinAddr: 0x8E624, symSize: 0xAC }
  - { offsetInCU: 0x212FC, offset: 0x802AE, size: 0x8, addend: 0x0, symName: '__ZN4core3ptr146drop_in_place$LT$alloc..vec..Vec$LT$addr2line..SupUnit$LT$gimli..read..endian_slice..EndianSlice$LT$gimli..endianity..LittleEndian$GT$$GT$$GT$$GT$17hfac6846fe49654c7E', symObjAddr: 0x8E698, symBinAddr: 0x8E6D0, symSize: 0x140 }
  - { offsetInCU: 0x21410, offset: 0x803C2, size: 0x8, addend: 0x0, symName: '__ZN4core3ptr146drop_in_place$LT$alloc..vec..Vec$LT$addr2line..SupUnit$LT$gimli..read..endian_slice..EndianSlice$LT$gimli..endianity..LittleEndian$GT$$GT$$GT$$GT$17hfac6846fe49654c7E', symObjAddr: 0x8E698, symBinAddr: 0x8E6D0, symSize: 0x140 }
  - { offsetInCU: 0x21418, offset: 0x803CA, size: 0x8, addend: 0x0, symName: '__ZN5alloc7raw_vec19RawVec$LT$T$C$A$GT$16reserve_for_push17hd246ffc0cef05668E', symObjAddr: 0x8E7D8, symBinAddr: 0x8E810, symSize: 0xD4 }
  - { offsetInCU: 0x218A8, offset: 0x8085A, size: 0x8, addend: 0x0, symName: '__ZN4core3ptr123drop_in_place$LT$addr2line..SupUnit$LT$gimli..read..endian_slice..EndianSlice$LT$gimli..endianity..LittleEndian$GT$$GT$$GT$17hdc4355ae6b740ddbE', symObjAddr: 0x8E8AC, symBinAddr: 0x8E8E4, symSize: 0xA8 }
  - { offsetInCU: 0x218B0, offset: 0x80862, size: 0x8, addend: 0x0, symName: '__ZN4core3ptr154drop_in_place$LT$alloc..sync..Arc$LT$gimli..read..dwarf..Dwarf$LT$gimli..read..endian_slice..EndianSlice$LT$gimli..endianity..LittleEndian$GT$$GT$$GT$$GT$17h7ce197f64740e00fE', symObjAddr: 0x8E954, symBinAddr: 0x8E98C, symSize: 0x24 }
  - { offsetInCU: 0x21C9A, offset: 0x80C4C, size: 0x8, addend: 0x0, symName: '__ZN4core3ptr154drop_in_place$LT$alloc..sync..Arc$LT$gimli..read..dwarf..Dwarf$LT$gimli..read..endian_slice..EndianSlice$LT$gimli..endianity..LittleEndian$GT$$GT$$GT$$GT$17h7ce197f64740e00fE', symObjAddr: 0x8E954, symBinAddr: 0x8E98C, symSize: 0x24 }
  - { offsetInCU: 0x21CA2, offset: 0x80C54, size: 0x8, addend: 0x0, symName: '__ZN4core3ptr158drop_in_place$LT$alloc..boxed..Box$LT$$u5b$addr2line..ResUnit$LT$gimli..read..endian_slice..EndianSlice$LT$gimli..endianity..LittleEndian$GT$$GT$$u5d$$GT$$GT$17h35c15698f405ade4E', symObjAddr: 0x8E978, symBinAddr: 0x8E9B0, symSize: 0xB0 }
  - { offsetInCU: 0x21CB7, offset: 0x80C69, size: 0x8, addend: 0x0, symName: '__ZN4core3ptr154drop_in_place$LT$alloc..sync..Arc$LT$gimli..read..dwarf..Dwarf$LT$gimli..read..endian_slice..EndianSlice$LT$gimli..endianity..LittleEndian$GT$$GT$$GT$$GT$17h7ce197f64740e00fE', symObjAddr: 0x8E954, symBinAddr: 0x8E98C, symSize: 0x24 }
  - { offsetInCU: 0x21CD1, offset: 0x80C83, size: 0x8, addend: 0x0, symName: '__ZN4core3ptr154drop_in_place$LT$alloc..sync..Arc$LT$gimli..read..dwarf..Dwarf$LT$gimli..read..endian_slice..EndianSlice$LT$gimli..endianity..LittleEndian$GT$$GT$$GT$$GT$17h7ce197f64740e00fE', symObjAddr: 0x8E954, symBinAddr: 0x8E98C, symSize: 0x24 }
  - { offsetInCU: 0x21CEB, offset: 0x80C9D, size: 0x8, addend: 0x0, symName: '__ZN4core3ptr154drop_in_place$LT$alloc..sync..Arc$LT$gimli..read..dwarf..Dwarf$LT$gimli..read..endian_slice..EndianSlice$LT$gimli..endianity..LittleEndian$GT$$GT$$GT$$GT$17h7ce197f64740e00fE', symObjAddr: 0x8E954, symBinAddr: 0x8E98C, symSize: 0x24 }
  - { offsetInCU: 0x21D52, offset: 0x80D04, size: 0x8, addend: 0x0, symName: '__ZN4core3ptr158drop_in_place$LT$alloc..boxed..Box$LT$$u5b$addr2line..ResUnit$LT$gimli..read..endian_slice..EndianSlice$LT$gimli..endianity..LittleEndian$GT$$GT$$u5d$$GT$$GT$17h35c15698f405ade4E', symObjAddr: 0x8E978, symBinAddr: 0x8E9B0, symSize: 0xB0 }
  - { offsetInCU: 0x21D5A, offset: 0x80D0C, size: 0x8, addend: 0x0, symName: '__ZN4core3ptr71drop_in_place$LT$std..backtrace_rs..symbolize..gimli..macho..Object$GT$17hb430e886aadd3586E', symObjAddr: 0x8EA28, symBinAddr: 0x8EA60, symSize: 0xEC }
  - { offsetInCU: 0x21E0C, offset: 0x80DBE, size: 0x8, addend: 0x0, symName: '__ZN4core3ptr71drop_in_place$LT$std..backtrace_rs..symbolize..gimli..macho..Object$GT$17hb430e886aadd3586E', symObjAddr: 0x8EA28, symBinAddr: 0x8EA60, symSize: 0xEC }
  - { offsetInCU: 0x21E14, offset: 0x80DC6, size: 0x8, addend: 0x0, symName: '__ZN5gimli4read5index18UnitIndex$LT$R$GT$5parse17h0bafee5271ca36f2E', symObjAddr: 0x8EB14, symBinAddr: 0x8EB4C, symSize: 0x8DC }
  - { offsetInCU: 0x2219B, offset: 0x8114D, size: 0x8, addend: 0x0, symName: '__ZN4core3ptr123drop_in_place$LT$addr2line..Context$LT$gimli..read..endian_slice..EndianSlice$LT$gimli..endianity..LittleEndian$GT$$GT$$GT$17h03c31b4a005ff70bE', symObjAddr: 0x8F3F0, symBinAddr: 0x8F428, symSize: 0x108 }
  - { offsetInCU: 0x221A3, offset: 0x81155, size: 0x8, addend: 0x0, symName: '__ZN4core3ptr130drop_in_place$LT$gimli..read..dwarf..Dwarf$LT$gimli..read..endian_slice..EndianSlice$LT$gimli..endianity..LittleEndian$GT$$GT$$GT$17h91e731adef48c4bbE', symObjAddr: 0x8F4F8, symBinAddr: 0x8F530, symSize: 0x8C }
  - { offsetInCU: 0x2239D, offset: 0x8134F, size: 0x8, addend: 0x0, symName: '__ZN4core3ptr130drop_in_place$LT$gimli..read..dwarf..Dwarf$LT$gimli..read..endian_slice..EndianSlice$LT$gimli..endianity..LittleEndian$GT$$GT$$GT$17h91e731adef48c4bbE', symObjAddr: 0x8F4F8, symBinAddr: 0x8F530, symSize: 0x8C }
  - { offsetInCU: 0x223A5, offset: 0x81357, size: 0x8, addend: 0x0, symName: '__ZN4core3ptr158drop_in_place$LT$alloc..boxed..Box$LT$$u5b$addr2line..SupUnit$LT$gimli..read..endian_slice..EndianSlice$LT$gimli..endianity..LittleEndian$GT$$GT$$u5d$$GT$$GT$17hfd355295338690e7E', symObjAddr: 0x8F584, symBinAddr: 0x8F5BC, symSize: 0x140 }
  - { offsetInCU: 0x225FD, offset: 0x815AF, size: 0x8, addend: 0x0, symName: '__ZN4core3ptr158drop_in_place$LT$alloc..boxed..Box$LT$$u5b$addr2line..SupUnit$LT$gimli..read..endian_slice..EndianSlice$LT$gimli..endianity..LittleEndian$GT$$GT$$u5d$$GT$$GT$17hfd355295338690e7E', symObjAddr: 0x8F584, symBinAddr: 0x8F5BC, symSize: 0x140 }
  - { offsetInCU: 0x22605, offset: 0x815B7, size: 0x8, addend: 0x0, symName: '__ZN4core3ptr121drop_in_place$LT$core..option..Option$LT$core..option..Option$LT$std..backtrace_rs..symbolize..gimli..Mapping$GT$$GT$$GT$17h2f2a4582ada861a0E', symObjAddr: 0x8F6C4, symBinAddr: 0x8F6FC, symSize: 0x14 }
  - { offsetInCU: 0x22A5D, offset: 0x81A0F, size: 0x8, addend: 0x0, symName: '__ZN4core3ptr121drop_in_place$LT$core..option..Option$LT$core..option..Option$LT$std..backtrace_rs..symbolize..gimli..Mapping$GT$$GT$$GT$17h2f2a4582ada861a0E', symObjAddr: 0x8F6C4, symBinAddr: 0x8F6FC, symSize: 0x14 }
  - { offsetInCU: 0x22A65, offset: 0x81A17, size: 0x8, addend: 0x0, symName: '__ZN72_$LT$alloc..boxed..Box$LT$T$C$A$GT$$u20$as$u20$core..ops..drop..Drop$GT$4drop17h1b10f03805494cabE', symObjAddr: 0x8F6D8, symBinAddr: 0x8F710, symSize: 0xC }
  - { offsetInCU: 0x22A91, offset: 0x81A43, size: 0x8, addend: 0x0, symName: '__ZN4core3ptr217drop_in_place$LT$addr2line..lazy..LazyCell$LT$core..result..Result$LT$addr2line..function..Functions$LT$gimli..read..endian_slice..EndianSlice$LT$gimli..endianity..LittleEndian$GT$$GT$$C$gimli..read..Error$GT$$GT$$GT$17ha5bf901c04b82b1dE', symObjAddr: 0x8F6E4, symBinAddr: 0x8F71C, symSize: 0x14 }
  - { offsetInCU: 0x22A99, offset: 0x81A4B, size: 0x8, addend: 0x0, symName: '__ZN4core3ptr416drop_in_place$LT$addr2line..lazy..LazyCell$LT$core..result..Result$LT$core..option..Option$LT$alloc..boxed..Box$LT$$LP$alloc..sync..Arc$LT$gimli..read..dwarf..Dwarf$LT$gimli..read..endian_slice..EndianSlice$LT$gimli..endianity..LittleEndian$GT$$GT$$GT$$C$gimli..read..dwarf..Unit$LT$gimli..read..endian_slice..EndianSlice$LT$gimli..endianity..LittleEndian$GT$$C$usize$GT$$RP$$GT$$GT$$C$gimli..read..Error$GT$$GT$$GT$17h58b169475b46d68dE', symObjAddr: 0x8F6F8, symBinAddr: 0x8F730, symSize: 0x14 }
  - { offsetInCU: 0x22AAE, offset: 0x81A60, size: 0x8, addend: 0x0, symName: '__ZN4core3ptr217drop_in_place$LT$addr2line..lazy..LazyCell$LT$core..result..Result$LT$addr2line..function..Functions$LT$gimli..read..endian_slice..EndianSlice$LT$gimli..endianity..LittleEndian$GT$$GT$$C$gimli..read..Error$GT$$GT$$GT$17ha5bf901c04b82b1dE', symObjAddr: 0x8F6E4, symBinAddr: 0x8F71C, symSize: 0x14 }
  - { offsetInCU: 0x22AC8, offset: 0x81A7A, size: 0x8, addend: 0x0, symName: '__ZN4core3ptr217drop_in_place$LT$addr2line..lazy..LazyCell$LT$core..result..Result$LT$addr2line..function..Functions$LT$gimli..read..endian_slice..EndianSlice$LT$gimli..endianity..LittleEndian$GT$$GT$$C$gimli..read..Error$GT$$GT$$GT$17ha5bf901c04b82b1dE', symObjAddr: 0x8F6E4, symBinAddr: 0x8F71C, symSize: 0x14 }
  - { offsetInCU: 0x22AE0, offset: 0x81A92, size: 0x8, addend: 0x0, symName: '__ZN4core3ptr416drop_in_place$LT$addr2line..lazy..LazyCell$LT$core..result..Result$LT$core..option..Option$LT$alloc..boxed..Box$LT$$LP$alloc..sync..Arc$LT$gimli..read..dwarf..Dwarf$LT$gimli..read..endian_slice..EndianSlice$LT$gimli..endianity..LittleEndian$GT$$GT$$GT$$C$gimli..read..dwarf..Unit$LT$gimli..read..endian_slice..EndianSlice$LT$gimli..endianity..LittleEndian$GT$$C$usize$GT$$RP$$GT$$GT$$C$gimli..read..Error$GT$$GT$$GT$17h58b169475b46d68dE', symObjAddr: 0x8F6F8, symBinAddr: 0x8F730, symSize: 0x14 }
  - { offsetInCU: 0x22AE8, offset: 0x81A9A, size: 0x8, addend: 0x0, symName: '__ZN4core3ptr383drop_in_place$LT$core..result..Result$LT$core..option..Option$LT$alloc..boxed..Box$LT$$LP$alloc..sync..Arc$LT$gimli..read..dwarf..Dwarf$LT$gimli..read..endian_slice..EndianSlice$LT$gimli..endianity..LittleEndian$GT$$GT$$GT$$C$gimli..read..dwarf..Unit$LT$gimli..read..endian_slice..EndianSlice$LT$gimli..endianity..LittleEndian$GT$$C$usize$GT$$RP$$GT$$GT$$C$gimli..read..Error$GT$$GT$17hf905fff6e6281a59E', symObjAddr: 0x8F70C, symBinAddr: 0x8F744, symSize: 0x11C }
  - { offsetInCU: 0x22B44, offset: 0x81AF6, size: 0x8, addend: 0x0, symName: '__ZN4core3ptr383drop_in_place$LT$core..result..Result$LT$core..option..Option$LT$alloc..boxed..Box$LT$$LP$alloc..sync..Arc$LT$gimli..read..dwarf..Dwarf$LT$gimli..read..endian_slice..EndianSlice$LT$gimli..endianity..LittleEndian$GT$$GT$$GT$$C$gimli..read..dwarf..Unit$LT$gimli..read..endian_slice..EndianSlice$LT$gimli..endianity..LittleEndian$GT$$C$usize$GT$$RP$$GT$$GT$$C$gimli..read..Error$GT$$GT$17hf905fff6e6281a59E', symObjAddr: 0x8F70C, symBinAddr: 0x8F744, symSize: 0x11C }
  - { offsetInCU: 0x22B4C, offset: 0x81AFE, size: 0x8, addend: 0x0, symName: '__ZN72_$LT$alloc..boxed..Box$LT$T$C$A$GT$$u20$as$u20$core..ops..drop..Drop$GT$4drop17h3ce3b3624f54ecfaE', symObjAddr: 0x8F828, symBinAddr: 0x8F860, symSize: 0x4 }
  - { offsetInCU: 0x230A8, offset: 0x8205A, size: 0x8, addend: 0x0, symName: '__ZN4core3ptr84drop_in_place$LT$alloc..sync..ArcInner$LT$gimli..read..abbrev..Abbreviations$GT$$GT$17hb449902ce384c7d8E', symObjAddr: 0x8FFE8, symBinAddr: 0x90020, symSize: 0x100 }
  - { offsetInCU: 0x230B0, offset: 0x82062, size: 0x8, addend: 0x0, symName: __ZN5gimli4read4line15FileEntryFormat5parse17h52b613ac9d1a0cbcE, symObjAddr: 0x900E8, symBinAddr: 0x90120, symSize: 0x2A0 }
  - { offsetInCU: 0x234D6, offset: 0x82488, size: 0x8, addend: 0x0, symName: '__ZN4core3ptr79drop_in_place$LT$alloc..sync..Arc$LT$gimli..read..abbrev..Abbreviations$GT$$GT$17hef5c35d51298a0b7E', symObjAddr: 0x90C00, symBinAddr: 0x90C38, symSize: 0x28 }
  - { offsetInCU: 0x234DE, offset: 0x82490, size: 0x8, addend: 0x0, symName: '__ZN5alloc7raw_vec19RawVec$LT$T$C$A$GT$16reserve_for_push17h5027895f8a71a950E', symObjAddr: 0x90C28, symBinAddr: 0x90C60, symSize: 0xC0 }
  - { offsetInCU: 0x234F3, offset: 0x824A5, size: 0x8, addend: 0x0, symName: '__ZN4core3ptr79drop_in_place$LT$alloc..sync..Arc$LT$gimli..read..abbrev..Abbreviations$GT$$GT$17hef5c35d51298a0b7E', symObjAddr: 0x90C00, symBinAddr: 0x90C38, symSize: 0x28 }
  - { offsetInCU: 0x2350D, offset: 0x824BF, size: 0x8, addend: 0x0, symName: '__ZN4core3ptr79drop_in_place$LT$alloc..sync..Arc$LT$gimli..read..abbrev..Abbreviations$GT$$GT$17hef5c35d51298a0b7E', symObjAddr: 0x90C00, symBinAddr: 0x90C38, symSize: 0x28 }
  - { offsetInCU: 0x23527, offset: 0x824D9, size: 0x8, addend: 0x0, symName: '__ZN4core3ptr79drop_in_place$LT$alloc..sync..Arc$LT$gimli..read..abbrev..Abbreviations$GT$$GT$17hef5c35d51298a0b7E', symObjAddr: 0x90C00, symBinAddr: 0x90C38, symSize: 0x28 }
  - { offsetInCU: 0x2358E, offset: 0x82540, size: 0x8, addend: 0x0, symName: '__ZN4core3ptr52drop_in_place$LT$gimli..read..abbrev..Attributes$GT$17h7bf487a938f2a47cE', symObjAddr: 0x90CE8, symBinAddr: 0x90D20, symSize: 0x20 }
  - { offsetInCU: 0x23596, offset: 0x82548, size: 0x8, addend: 0x0, symName: '__ZN4core3ptr55drop_in_place$LT$gimli..read..abbrev..Abbreviations$GT$17h3f1ed70d75a8c789E', symObjAddr: 0x90D08, symBinAddr: 0x90D40, symSize: 0x100 }
  - { offsetInCU: 0x235B3, offset: 0x82565, size: 0x8, addend: 0x0, symName: '__ZN4core3ptr55drop_in_place$LT$gimli..read..abbrev..Abbreviations$GT$17h3f1ed70d75a8c789E', symObjAddr: 0x90D08, symBinAddr: 0x90D40, symSize: 0x100 }
  - { offsetInCU: 0x235CD, offset: 0x8257F, size: 0x8, addend: 0x0, symName: '__ZN4core3ptr55drop_in_place$LT$gimli..read..abbrev..Abbreviations$GT$17h3f1ed70d75a8c789E', symObjAddr: 0x90D08, symBinAddr: 0x90D40, symSize: 0x100 }
  - { offsetInCU: 0x235E7, offset: 0x82599, size: 0x8, addend: 0x0, symName: '__ZN4core3ptr55drop_in_place$LT$gimli..read..abbrev..Abbreviations$GT$17h3f1ed70d75a8c789E', symObjAddr: 0x90D08, symBinAddr: 0x90D40, symSize: 0x100 }
  - { offsetInCU: 0x23601, offset: 0x825B3, size: 0x8, addend: 0x0, symName: '__ZN4core3ptr55drop_in_place$LT$gimli..read..abbrev..Abbreviations$GT$17h3f1ed70d75a8c789E', symObjAddr: 0x90D08, symBinAddr: 0x90D40, symSize: 0x100 }
  - { offsetInCU: 0x2361B, offset: 0x825CD, size: 0x8, addend: 0x0, symName: '__ZN4core3ptr55drop_in_place$LT$gimli..read..abbrev..Abbreviations$GT$17h3f1ed70d75a8c789E', symObjAddr: 0x90D08, symBinAddr: 0x90D40, symSize: 0x100 }
  - { offsetInCU: 0x23634, offset: 0x825E6, size: 0x8, addend: 0x0, symName: '__ZN4core3ptr55drop_in_place$LT$gimli..read..abbrev..Abbreviations$GT$17h3f1ed70d75a8c789E', symObjAddr: 0x90D08, symBinAddr: 0x90D40, symSize: 0x100 }
  - { offsetInCU: 0x2364D, offset: 0x825FF, size: 0x8, addend: 0x0, symName: '__ZN4core3ptr55drop_in_place$LT$gimli..read..abbrev..Abbreviations$GT$17h3f1ed70d75a8c789E', symObjAddr: 0x90D08, symBinAddr: 0x90D40, symSize: 0x100 }
  - { offsetInCU: 0x23662, offset: 0x82614, size: 0x8, addend: 0x0, symName: '__ZN4core3ptr55drop_in_place$LT$gimli..read..abbrev..Abbreviations$GT$17h3f1ed70d75a8c789E', symObjAddr: 0x90D08, symBinAddr: 0x90D40, symSize: 0x100 }
  - { offsetInCU: 0x2366A, offset: 0x8261C, size: 0x8, addend: 0x0, symName: '__ZN4core3ptr144drop_in_place$LT$alloc..vec..Vec$LT$core..option..Option$LT$core..option..Option$LT$std..backtrace_rs..symbolize..gimli..Mapping$GT$$GT$$GT$$GT$17hf4d3ca1f111a1ce7E', symObjAddr: 0x90E08, symBinAddr: 0x90E40, symSize: 0xBC }
  - { offsetInCU: 0x23A5E, offset: 0x82A10, size: 0x8, addend: 0x0, symName: '__ZN4core3ptr144drop_in_place$LT$alloc..vec..Vec$LT$core..option..Option$LT$core..option..Option$LT$std..backtrace_rs..symbolize..gimli..Mapping$GT$$GT$$GT$$GT$17hf4d3ca1f111a1ce7E', symObjAddr: 0x90E08, symBinAddr: 0x90E40, symSize: 0xBC }
  - { offsetInCU: 0x23A66, offset: 0x82A18, size: 0x8, addend: 0x0, symName: '__ZN5alloc7raw_vec19RawVec$LT$T$C$A$GT$7reserve21do_reserve_and_handle17h874de12a6dd843f4E', symObjAddr: 0x90EC4, symBinAddr: 0x1D47D4, symSize: 0xD0 }
  - { offsetInCU: 0x23D48, offset: 0x82CFA, size: 0x8, addend: 0x0, symName: '__ZN4core3ptr44drop_in_place$LT$object..read..ObjectMap$GT$17hf0c6e58a46a9ab96E', symObjAddr: 0x92D70, symBinAddr: 0x92C04, symSize: 0x44 }
  - { offsetInCU: 0x23D50, offset: 0x82D02, size: 0x8, addend: 0x0, symName: '__ZN4core3ptr72drop_in_place$LT$core..option..Option$LT$object..read..ObjectMap$GT$$GT$17h13e0f198975d36c5E', symObjAddr: 0x92DB4, symBinAddr: 0x92C48, symSize: 0x48 }
  - { offsetInCU: 0x23ED0, offset: 0x82E82, size: 0x8, addend: 0x0, symName: '__ZN4core3ptr72drop_in_place$LT$core..option..Option$LT$object..read..ObjectMap$GT$$GT$17h13e0f198975d36c5E', symObjAddr: 0x92DB4, symBinAddr: 0x92C48, symSize: 0x48 }
  - { offsetInCU: 0x23ED8, offset: 0x82E8A, size: 0x8, addend: 0x0, symName: __ZN4core5slice4sort8heapsort17h11e09bda265b6af4E, symObjAddr: 0x92DFC, symBinAddr: 0x1D4978, symSize: 0x218 }
  - { offsetInCU: 0x240A3, offset: 0x83055, size: 0x8, addend: 0x0, symName: '__ZN4core3ptr89drop_in_place$LT$core..slice..sort..InsertionHole$LT$object..read..ObjectMapEntry$GT$$GT$17h272e61d9fca4a088E', symObjAddr: 0x9363C, symBinAddr: 0x92C90, symSize: 0x14 }
  - { offsetInCU: 0x240AB, offset: 0x8305D, size: 0x8, addend: 0x0, symName: __ZN4core5slice4sort25insertion_sort_shift_left17h0c36ea357aea79f0E, symObjAddr: 0x93650, symBinAddr: 0x92CA4, symSize: 0xF8 }
  - { offsetInCU: 0x240C0, offset: 0x83072, size: 0x8, addend: 0x0, symName: '__ZN4core3ptr89drop_in_place$LT$core..slice..sort..InsertionHole$LT$object..read..ObjectMapEntry$GT$$GT$17h272e61d9fca4a088E', symObjAddr: 0x9363C, symBinAddr: 0x92C90, symSize: 0x14 }
  - { offsetInCU: 0x240DA, offset: 0x8308C, size: 0x8, addend: 0x0, symName: '__ZN4core3ptr89drop_in_place$LT$core..slice..sort..InsertionHole$LT$object..read..ObjectMapEntry$GT$$GT$17h272e61d9fca4a088E', symObjAddr: 0x9363C, symBinAddr: 0x92C90, symSize: 0x14 }
  - { offsetInCU: 0x2411E, offset: 0x830D0, size: 0x8, addend: 0x0, symName: '__ZN4core3ptr91drop_in_place$LT$core..slice..sort..InsertionHole$LT$$LP$$RF$$u5b$u8$u5d$$C$u64$RP$$GT$$GT$17hf29b8a27d964a25cE', symObjAddr: 0x94140, symBinAddr: 0x92FC0, symSize: 0x14 }
  - { offsetInCU: 0x24126, offset: 0x830D8, size: 0x8, addend: 0x0, symName: __ZN4core5slice4sort25insertion_sort_shift_left17h0d4b8498836fe5faE, symObjAddr: 0x94154, symBinAddr: 0x92FD4, symSize: 0x154 }
  - { offsetInCU: 0x2413B, offset: 0x830ED, size: 0x8, addend: 0x0, symName: '__ZN4core3ptr91drop_in_place$LT$core..slice..sort..InsertionHole$LT$$LP$$RF$$u5b$u8$u5d$$C$u64$RP$$GT$$GT$17hf29b8a27d964a25cE', symObjAddr: 0x94140, symBinAddr: 0x92FC0, symSize: 0x14 }
  - { offsetInCU: 0x24155, offset: 0x83107, size: 0x8, addend: 0x0, symName: '__ZN4core3ptr91drop_in_place$LT$core..slice..sort..InsertionHole$LT$$LP$$RF$$u5b$u8$u5d$$C$u64$RP$$GT$$GT$17hf29b8a27d964a25cE', symObjAddr: 0x94140, symBinAddr: 0x92FC0, symSize: 0x14 }
  - { offsetInCU: 0x241C6, offset: 0x83178, size: 0x8, addend: 0x0, symName: '__ZN4core3ptr71drop_in_place$LT$std..sync..rwlock..RwLockReadGuard$LT$$LP$$RP$$GT$$GT$17hde0e3de2b148ecf9E', symObjAddr: 0x952A4, symBinAddr: 0x93890, symSize: 0x3C }
  - { offsetInCU: 0x241CE, offset: 0x83180, size: 0x8, addend: 0x0, symName: '__ZN4core3ptr75drop_in_place$LT$std..sys..unix..locks..pthread_rwlock..AllocatedRwLock$GT$17h106cd4c28c283f42E', symObjAddr: 0x952E0, symBinAddr: 0x938CC, symSize: 0x4 }
  - { offsetInCU: 0x241EA, offset: 0x8319C, size: 0x8, addend: 0x0, symName: '__ZN4core3ptr75drop_in_place$LT$std..sys..unix..locks..pthread_rwlock..AllocatedRwLock$GT$17h106cd4c28c283f42E', symObjAddr: 0x952E0, symBinAddr: 0x938CC, symSize: 0x4 }
  - { offsetInCU: 0x24204, offset: 0x831B6, size: 0x8, addend: 0x0, symName: '__ZN4core3ptr75drop_in_place$LT$std..sys..unix..locks..pthread_rwlock..AllocatedRwLock$GT$17h106cd4c28c283f42E', symObjAddr: 0x952E0, symBinAddr: 0x938CC, symSize: 0x4 }
  - { offsetInCU: 0x242CC, offset: 0x8327E, size: 0x8, addend: 0x0, symName: '__ZN4core3ptr75drop_in_place$LT$std..sys..unix..locks..pthread_rwlock..AllocatedRwLock$GT$17h106cd4c28c283f42E', symObjAddr: 0x952E0, symBinAddr: 0x938CC, symSize: 0x4 }
  - { offsetInCU: 0x242D4, offset: 0x83286, size: 0x8, addend: 0x0, symName: '__ZN4core3ptr64drop_in_place$LT$std..backtrace_rs..print..BacktraceFrameFmt$GT$17hb8f292ff4be3515dE', symObjAddr: 0x952E4, symBinAddr: 0x938D0, symSize: 0x10 }
  - { offsetInCU: 0x242E9, offset: 0x8329B, size: 0x8, addend: 0x0, symName: '__ZN4core3ptr75drop_in_place$LT$std..sys..unix..locks..pthread_rwlock..AllocatedRwLock$GT$17h106cd4c28c283f42E', symObjAddr: 0x952E0, symBinAddr: 0x938CC, symSize: 0x4 }
  - { offsetInCU: 0x242F1, offset: 0x832A3, size: 0x8, addend: 0x0, symName: '__ZN4core3ptr64drop_in_place$LT$std..backtrace_rs..print..BacktraceFrameFmt$GT$17hb8f292ff4be3515dE', symObjAddr: 0x952E4, symBinAddr: 0x938D0, symSize: 0x10 }
  - { offsetInCU: 0x24300, offset: 0x832B2, size: 0x8, addend: 0x0, symName: '__ZN4core3ptr64drop_in_place$LT$std..backtrace_rs..print..BacktraceFrameFmt$GT$17hb8f292ff4be3515dE', symObjAddr: 0x952E4, symBinAddr: 0x938D0, symSize: 0x10 }
  - { offsetInCU: 0x24308, offset: 0x832BA, size: 0x8, addend: 0x0, symName: __ZN3std12backtrace_rs5print17BacktraceFrameFmt21print_raw_with_column17h3ba2b65e4a76500dE, symObjAddr: 0x952F4, symBinAddr: 0x938E0, symSize: 0x540 }
  - { offsetInCU: 0x2431D, offset: 0x832CF, size: 0x8, addend: 0x0, symName: '__ZN4core3ptr64drop_in_place$LT$std..backtrace_rs..print..BacktraceFrameFmt$GT$17hb8f292ff4be3515dE', symObjAddr: 0x952E4, symBinAddr: 0x938D0, symSize: 0x10 }
  - { offsetInCU: 0x243CA, offset: 0x8337C, size: 0x8, addend: 0x0, symName: '__ZN4core3ptr88drop_in_place$LT$std..sys_common..backtrace.._print_fmt..$u7b$$u7b$closure$u7d$$u7d$$GT$17h3b49838a19af8904E', symObjAddr: 0x96134, symBinAddr: 0x9460C, symSize: 0x20 }
  - { offsetInCU: 0x243D2, offset: 0x83384, size: 0x8, addend: 0x0, symName: '__ZN4core3ops8function6FnOnce40call_once$u7b$$u7b$vtable.shim$u7d$$u7d$17hc035d292f60f9dceE', symObjAddr: 0x96154, symBinAddr: 0x9462C, symSize: 0x4 }
  - { offsetInCU: 0x243FD, offset: 0x833AF, size: 0x8, addend: 0x0, symName: '__ZN4core3ops8function6FnOnce40call_once$u7b$$u7b$vtable.shim$u7d$$u7d$17hc035d292f60f9dceE', symObjAddr: 0x96154, symBinAddr: 0x9462C, symSize: 0x4 }
  - { offsetInCU: 0x24417, offset: 0x833C9, size: 0x8, addend: 0x0, symName: '__ZN4core3ops8function6FnOnce40call_once$u7b$$u7b$vtable.shim$u7d$$u7d$17hc035d292f60f9dceE', symObjAddr: 0x96154, symBinAddr: 0x9462C, symSize: 0x4 }
  - { offsetInCU: 0x24431, offset: 0x833E3, size: 0x8, addend: 0x0, symName: '__ZN4core3ops8function6FnOnce40call_once$u7b$$u7b$vtable.shim$u7d$$u7d$17hc035d292f60f9dceE', symObjAddr: 0x96154, symBinAddr: 0x9462C, symSize: 0x4 }
  - { offsetInCU: 0x2444B, offset: 0x833FD, size: 0x8, addend: 0x0, symName: '__ZN4core3ops8function6FnOnce40call_once$u7b$$u7b$vtable.shim$u7d$$u7d$17hc035d292f60f9dceE', symObjAddr: 0x96154, symBinAddr: 0x9462C, symSize: 0x4 }
  - { offsetInCU: 0x24465, offset: 0x83417, size: 0x8, addend: 0x0, symName: '__ZN4core3ops8function6FnOnce40call_once$u7b$$u7b$vtable.shim$u7d$$u7d$17hc035d292f60f9dceE', symObjAddr: 0x96154, symBinAddr: 0x9462C, symSize: 0x4 }
  - { offsetInCU: 0x2447F, offset: 0x83431, size: 0x8, addend: 0x0, symName: '__ZN4core3ops8function6FnOnce40call_once$u7b$$u7b$vtable.shim$u7d$$u7d$17hc035d292f60f9dceE', symObjAddr: 0x96154, symBinAddr: 0x9462C, symSize: 0x4 }
  - { offsetInCU: 0x24499, offset: 0x8344B, size: 0x8, addend: 0x0, symName: '__ZN4core3ops8function6FnOnce40call_once$u7b$$u7b$vtable.shim$u7d$$u7d$17hc035d292f60f9dceE', symObjAddr: 0x96154, symBinAddr: 0x9462C, symSize: 0x4 }
  - { offsetInCU: 0x244B3, offset: 0x83465, size: 0x8, addend: 0x0, symName: '__ZN4core3ops8function6FnOnce40call_once$u7b$$u7b$vtable.shim$u7d$$u7d$17hc035d292f60f9dceE', symObjAddr: 0x96154, symBinAddr: 0x9462C, symSize: 0x4 }
  - { offsetInCU: 0x244CC, offset: 0x8347E, size: 0x8, addend: 0x0, symName: '__ZN4core3ops8function6FnOnce40call_once$u7b$$u7b$vtable.shim$u7d$$u7d$17hc035d292f60f9dceE', symObjAddr: 0x96154, symBinAddr: 0x9462C, symSize: 0x4 }
  - { offsetInCU: 0x244E5, offset: 0x83497, size: 0x8, addend: 0x0, symName: '__ZN4core3ops8function6FnOnce40call_once$u7b$$u7b$vtable.shim$u7d$$u7d$17hc035d292f60f9dceE', symObjAddr: 0x96154, symBinAddr: 0x9462C, symSize: 0x4 }
  - { offsetInCU: 0x245D0, offset: 0x83582, size: 0x8, addend: 0x0, symName: '__ZN4core3ptr68drop_in_place$LT$core..option..Option$LT$std..thread..Thread$GT$$GT$17h50dba96b4bd2d7acE', symObjAddr: 0x991D0, symBinAddr: 0x976A8, symSize: 0x2C }
  - { offsetInCU: 0x245D8, offset: 0x8358A, size: 0x8, addend: 0x0, symName: '__ZN3std9panicking25panic_hook_with_disk_dump28_$u7b$$u7b$closure$u7d$$u7d$17h9b87f051b1a915abE', symObjAddr: 0x991FC, symBinAddr: 0x976D4, symSize: 0x2D4 }
  - { offsetInCU: 0x246FE, offset: 0x836B0, size: 0x8, addend: 0x0, symName: '__ZN4core3ptr70drop_in_place$LT$std..panicking..begin_panic_handler..PanicPayload$GT$17hb039ee0605df235cE', symObjAddr: 0x99BC0, symBinAddr: 0x98098, symSize: 0x20 }
  - { offsetInCU: 0x24706, offset: 0x836B8, size: 0x8, addend: 0x0, symName: '__ZN90_$LT$std..panicking..begin_panic_handler..PanicPayload$u20$as$u20$core..panic..BoxMeUp$GT$8take_box17h598fb3b4335cdf87E', symObjAddr: 0x99BE0, symBinAddr: 0x980B8, symSize: 0xE8 }
  - { offsetInCU: 0x24739, offset: 0x836EB, size: 0x8, addend: 0x0, symName: '__ZN90_$LT$std..panicking..begin_panic_handler..PanicPayload$u20$as$u20$core..panic..BoxMeUp$GT$8take_box17h598fb3b4335cdf87E', symObjAddr: 0x99BE0, symBinAddr: 0x980B8, symSize: 0xE8 }
  - { offsetInCU: 0x24753, offset: 0x83705, size: 0x8, addend: 0x0, symName: '__ZN90_$LT$std..panicking..begin_panic_handler..PanicPayload$u20$as$u20$core..panic..BoxMeUp$GT$8take_box17h598fb3b4335cdf87E', symObjAddr: 0x99BE0, symBinAddr: 0x980B8, symSize: 0xE8 }
  - { offsetInCU: 0x2476D, offset: 0x8371F, size: 0x8, addend: 0x0, symName: '__ZN90_$LT$std..panicking..begin_panic_handler..PanicPayload$u20$as$u20$core..panic..BoxMeUp$GT$8take_box17h598fb3b4335cdf87E', symObjAddr: 0x99BE0, symBinAddr: 0x980B8, symSize: 0xE8 }
  - { offsetInCU: 0x24787, offset: 0x83739, size: 0x8, addend: 0x0, symName: '__ZN90_$LT$std..panicking..begin_panic_handler..PanicPayload$u20$as$u20$core..panic..BoxMeUp$GT$8take_box17h598fb3b4335cdf87E', symObjAddr: 0x99BE0, symBinAddr: 0x980B8, symSize: 0xE8 }
  - { offsetInCU: 0x247A1, offset: 0x83753, size: 0x8, addend: 0x0, symName: '__ZN90_$LT$std..panicking..begin_panic_handler..PanicPayload$u20$as$u20$core..panic..BoxMeUp$GT$8take_box17h598fb3b4335cdf87E', symObjAddr: 0x99BE0, symBinAddr: 0x980B8, symSize: 0xE8 }
  - { offsetInCU: 0x247BB, offset: 0x8376D, size: 0x8, addend: 0x0, symName: '__ZN90_$LT$std..panicking..begin_panic_handler..PanicPayload$u20$as$u20$core..panic..BoxMeUp$GT$8take_box17h598fb3b4335cdf87E', symObjAddr: 0x99BE0, symBinAddr: 0x980B8, symSize: 0xE8 }
  - { offsetInCU: 0x247D4, offset: 0x83786, size: 0x8, addend: 0x0, symName: '__ZN90_$LT$std..panicking..begin_panic_handler..PanicPayload$u20$as$u20$core..panic..BoxMeUp$GT$8take_box17h598fb3b4335cdf87E', symObjAddr: 0x99BE0, symBinAddr: 0x980B8, symSize: 0xE8 }
  - { offsetInCU: 0x247ED, offset: 0x8379F, size: 0x8, addend: 0x0, symName: '__ZN90_$LT$std..panicking..begin_panic_handler..PanicPayload$u20$as$u20$core..panic..BoxMeUp$GT$8take_box17h598fb3b4335cdf87E', symObjAddr: 0x99BE0, symBinAddr: 0x980B8, symSize: 0xE8 }
  - { offsetInCU: 0x260A7, offset: 0x85059, size: 0x8, addend: 0x0, symName: __ZN4core3fmt5Write10write_char17he9557dfdd4ea678bE, symObjAddr: 0x78110, symBinAddr: 0x78C24, symSize: 0xC8 }
  - { offsetInCU: 0x260AF, offset: 0x85061, size: 0x8, addend: 0x0, symName: __ZN4core3fmt5Write9write_fmt17h0fea04ca83b38182E, symObjAddr: 0x781D8, symBinAddr: 0x78CEC, symSize: 0x30 }
  - { offsetInCU: 0x26103, offset: 0x850B5, size: 0x8, addend: 0x0, symName: __ZN4core3fmt5Write9write_fmt17h0fea04ca83b38182E, symObjAddr: 0x781D8, symBinAddr: 0x78CEC, symSize: 0x30 }
  - { offsetInCU: 0x2610B, offset: 0x850BD, size: 0x8, addend: 0x0, symName: '__ZN4core3ptr100drop_in_place$LT$$RF$mut$u20$std..io..Write..write_fmt..Adapter$LT$alloc..vec..Vec$LT$u8$GT$$GT$$GT$17h59ae4c9da05b37d8E', symObjAddr: 0x78208, symBinAddr: 0x78D1C, symSize: 0x4 }
  - { offsetInCU: 0x2615A, offset: 0x8510C, size: 0x8, addend: 0x0, symName: '__ZN50_$LT$$RF$mut$u20$W$u20$as$u20$core..fmt..Write$GT$9write_str17h9691ddbf392356e9E', symObjAddr: 0x7820C, symBinAddr: 0x78D20, symSize: 0x8 }
  - { offsetInCU: 0x26162, offset: 0x85114, size: 0x8, addend: 0x0, symName: '__ZN50_$LT$$RF$mut$u20$W$u20$as$u20$core..fmt..Write$GT$10write_char17hfe4db8a035f9d2b6E', symObjAddr: 0x78214, symBinAddr: 0x78D28, symSize: 0xCC }
  - { offsetInCU: 0x2617A, offset: 0x8512C, size: 0x8, addend: 0x0, symName: '__ZN50_$LT$$RF$mut$u20$W$u20$as$u20$core..fmt..Write$GT$10write_char17hfe4db8a035f9d2b6E', symObjAddr: 0x78214, symBinAddr: 0x78D28, symSize: 0xCC }
  - { offsetInCU: 0x26182, offset: 0x85134, size: 0x8, addend: 0x0, symName: '__ZN50_$LT$$RF$mut$u20$W$u20$as$u20$core..fmt..Write$GT$9write_fmt17h2081b3119c75eea2E', symObjAddr: 0x782E0, symBinAddr: 0x78DF4, symSize: 0x34 }
  - { offsetInCU: 0x261F7, offset: 0x851A9, size: 0x8, addend: 0x0, symName: '__ZN50_$LT$$RF$mut$u20$W$u20$as$u20$core..fmt..Write$GT$9write_fmt17h2081b3119c75eea2E', symObjAddr: 0x782E0, symBinAddr: 0x78DF4, symSize: 0x34 }
  - { offsetInCU: 0x261FF, offset: 0x851B1, size: 0x8, addend: 0x0, symName: __ZN3std9panicking11panic_count17LOCAL_PANIC_COUNT7__getit17h24426122b4a1f372E, symObjAddr: 0x78314, symBinAddr: 0x78E28, symSize: 0xF8 }
  - { offsetInCU: 0x26230, offset: 0x851E2, size: 0x8, addend: 0x0, symName: '__ZN50_$LT$$RF$mut$u20$W$u20$as$u20$core..fmt..Write$GT$9write_str17hac5bc30f67dc8d07E', symObjAddr: 0x99D70, symBinAddr: 0x98248, symSize: 0x74 }
  - { offsetInCU: 0x26238, offset: 0x851EA, size: 0x8, addend: 0x0, symName: '__ZN50_$LT$$RF$mut$u20$W$u20$as$u20$core..fmt..Write$GT$10write_char17h0cbde2c922f6eb9dE', symObjAddr: 0x99DE4, symBinAddr: 0x982BC, symSize: 0x13C }
  - { offsetInCU: 0x2635B, offset: 0x8530D, size: 0x8, addend: 0x0, symName: '__ZN50_$LT$$RF$mut$u20$W$u20$as$u20$core..fmt..Write$GT$10write_char17h0cbde2c922f6eb9dE', symObjAddr: 0x99DE4, symBinAddr: 0x982BC, symSize: 0x13C }
  - { offsetInCU: 0x2636F, offset: 0x85321, size: 0x8, addend: 0x0, symName: '__ZN50_$LT$$RF$mut$u20$W$u20$as$u20$core..fmt..Write$GT$10write_char17h0cbde2c922f6eb9dE', symObjAddr: 0x99DE4, symBinAddr: 0x982BC, symSize: 0x13C }
  - { offsetInCU: 0x26377, offset: 0x85329, size: 0x8, addend: 0x0, symName: '__ZN50_$LT$$RF$mut$u20$W$u20$as$u20$core..fmt..Write$GT$9write_fmt17h971247ea395dc3aeE', symObjAddr: 0x99F20, symBinAddr: 0x983F8, symSize: 0x34 }
  - { offsetInCU: 0x2657D, offset: 0x8552F, size: 0x8, addend: 0x0, symName: '__ZN50_$LT$$RF$mut$u20$W$u20$as$u20$core..fmt..Write$GT$9write_fmt17h971247ea395dc3aeE', symObjAddr: 0x99F20, symBinAddr: 0x983F8, symSize: 0x34 }
  - { offsetInCU: 0x26591, offset: 0x85543, size: 0x8, addend: 0x0, symName: '__ZN50_$LT$$RF$mut$u20$W$u20$as$u20$core..fmt..Write$GT$9write_fmt17h971247ea395dc3aeE', symObjAddr: 0x99F20, symBinAddr: 0x983F8, symSize: 0x34 }
  - { offsetInCU: 0x26599, offset: 0x8554B, size: 0x8, addend: 0x0, symName: '__ZN93_$LT$std..panicking..begin_panic_handler..StrPanicPayload$u20$as$u20$core..panic..BoxMeUp$GT$8take_box17h34d8b641fdd0261cE', symObjAddr: 0x99F54, symBinAddr: 0x9842C, symSize: 0x48 }
  - { offsetInCU: 0x265E5, offset: 0x85597, size: 0x8, addend: 0x0, symName: '__ZN4core3fmt3num50_$LT$impl$u20$core..fmt..Debug$u20$for$u20$i32$GT$3fmt17h01b68edfbe8e866dE.1357', symObjAddr: 0x79DA0, symBinAddr: 0x7A15C, symSize: 0xF8 }
  - { offsetInCU: 0x265ED, offset: 0x8559F, size: 0x8, addend: 0x0, symName: __ZN3std6thread8ThreadId3new9exhausted17h93d201ae96b5129dE, symObjAddr: 0x79E98, symBinAddr: 0x1D4450, symSize: 0x3C }
  - { offsetInCU: 0x26798, offset: 0x8574A, size: 0x8, addend: 0x0, symName: '__ZN42_$LT$$RF$T$u20$as$u20$core..fmt..Debug$GT$3fmt17h7c180a1a716be39bE', symObjAddr: 0x784C4, symBinAddr: 0x78FA0, symSize: 0xFC }
  - { offsetInCU: 0x267A0, offset: 0x85752, size: 0x8, addend: 0x0, symName: __ZN3std3sys11personality5dwarf2eh20read_encoded_pointer17h44a5c9b0e7ca6a3dE, symObjAddr: 0x785C0, symBinAddr: 0x7909C, symSize: 0x198 }
  - { offsetInCU: 0x26945, offset: 0x858F7, size: 0x8, addend: 0x0, symName: '__ZN42_$LT$$RF$T$u20$as$u20$core..fmt..Debug$GT$3fmt17hc054c02f795023f9E', symObjAddr: 0x7922C, symBinAddr: 0x797F0, symSize: 0x228 }
  - { offsetInCU: 0x2694D, offset: 0x858FF, size: 0x8, addend: 0x0, symName: '__ZN3std10sys_common8lazy_box16LazyBox$LT$T$GT$10initialize17h27fb1df12d1208ddE', symObjAddr: 0x79454, symBinAddr: 0x1D4248, symSize: 0x208 }
  - { offsetInCU: 0x26C14, offset: 0x85BC6, size: 0x8, addend: 0x0, symName: '__ZN42_$LT$$RF$T$u20$as$u20$core..fmt..Debug$GT$3fmt17he1a9869e4898eeb0E', symObjAddr: 0x79D48, symBinAddr: 0x7A104, symSize: 0x10 }
  - { offsetInCU: 0x26C1C, offset: 0x85BCE, size: 0x8, addend: 0x0, symName: '__ZN58_$LT$alloc..string..String$u20$as$u20$core..fmt..Debug$GT$3fmt17hd447c46a5059a550E.1356', symObjAddr: 0x79D58, symBinAddr: 0x7A114, symSize: 0x18 }
  - { offsetInCU: 0x26C41, offset: 0x85BF3, size: 0x8, addend: 0x0, symName: '__ZN58_$LT$alloc..string..String$u20$as$u20$core..fmt..Debug$GT$3fmt17hd447c46a5059a550E.1356', symObjAddr: 0x79D58, symBinAddr: 0x7A114, symSize: 0x18 }
  - { offsetInCU: 0x26C57, offset: 0x85C09, size: 0x8, addend: 0x0, symName: '__ZN44_$LT$$RF$T$u20$as$u20$core..fmt..Display$GT$3fmt17h99c24a464c8e32a9E', symObjAddr: 0x7A610, symBinAddr: 0x7A990, symSize: 0x10 }
  - { offsetInCU: 0x26C5F, offset: 0x85C11, size: 0x8, addend: 0x0, symName: '__ZN68_$LT$std..sys..unix..os_str..Slice$u20$as$u20$core..fmt..Display$GT$3fmt17h1a24031b789ce775E', symObjAddr: 0x7A620, symBinAddr: 0x7A9A0, symSize: 0xCC }
  - { offsetInCU: 0x26C88, offset: 0x85C3A, size: 0x8, addend: 0x0, symName: '__ZN68_$LT$std..sys..unix..os_str..Slice$u20$as$u20$core..fmt..Display$GT$3fmt17h1a24031b789ce775E', symObjAddr: 0x7A620, symBinAddr: 0x7A9A0, symSize: 0xCC }
  - { offsetInCU: 0x26C97, offset: 0x85C49, size: 0x8, addend: 0x0, symName: '__ZN44_$LT$$RF$T$u20$as$u20$core..fmt..Display$GT$3fmt17h383fe3f1bba06eaeE', symObjAddr: 0x994D0, symBinAddr: 0x979A8, symSize: 0x68 }
  - { offsetInCU: 0x26C9F, offset: 0x85C51, size: 0x8, addend: 0x0, symName: __ZN3std10sys_common9backtrace5print17h14c164d93e53e84aE, symObjAddr: 0x99538, symBinAddr: 0x97A10, symSize: 0x130 }
  - { offsetInCU: 0x26D44, offset: 0x85CF6, size: 0x8, addend: 0x0, symName: '__ZN50_$LT$$BP$mut$u20$T$u20$as$u20$core..fmt..Debug$GT$3fmt17h31bffc556e2801f7E', symObjAddr: 0x95834, symBinAddr: 0x93E20, symSize: 0xE4 }
  - { offsetInCU: 0x26D4C, offset: 0x85CFE, size: 0x8, addend: 0x0, symName: '__ZN3std10sys_common9backtrace10_print_fmt28_$u7b$$u7b$closure$u7d$$u7d$17h9b000e0c380459e2E', symObjAddr: 0x95918, symBinAddr: 0x93F04, symSize: 0x20 }
  - { offsetInCU: 0x2923D, offset: 0x881EF, size: 0x8, addend: 0x0, symName: __ZN4core5slice4sort25insertion_sort_shift_left17h08bda739155dc484E, symObjAddr: 0x83350, symBinAddr: 0x83414, symSize: 0xD8 }
  - { offsetInCU: 0x29245, offset: 0x881F7, size: 0x8, addend: 0x0, symName: '__ZN5alloc7raw_vec19RawVec$LT$T$C$A$GT$16reserve_for_push17h3148143cd387ae91E', symObjAddr: 0x83428, symBinAddr: 0x834EC, symSize: 0xD0 }
  - { offsetInCU: 0x29404, offset: 0x883B6, size: 0x8, addend: 0x0, symName: __ZN4core5slice4sort25insertion_sort_shift_left17h2e002670ab2cdd4bE, symObjAddr: 0x86D54, symBinAddr: 0x86E18, symSize: 0xE8 }
  - { offsetInCU: 0x2940C, offset: 0x883BE, size: 0x8, addend: 0x0, symName: '__ZN4core3ptr285drop_in_place$LT$alloc..boxed..Box$LT$$u5b$$LP$gimli..read..UnitOffset$C$addr2line..lazy..LazyCell$LT$core..result..Result$LT$addr2line..function..Function$LT$gimli..read..endian_slice..EndianSlice$LT$gimli..endianity..LittleEndian$GT$$GT$$C$gimli..read..Error$GT$$GT$$RP$$u5d$$GT$$GT$17h4aeaecba37ed8f5aE', symObjAddr: 0x86E3C, symBinAddr: 0x86F00, symSize: 0x78 }
  - { offsetInCU: 0x29553, offset: 0x88505, size: 0x8, addend: 0x0, symName: __ZN4core5slice4sort25insertion_sort_shift_left17h96d6fec9fd2b73e8E, symObjAddr: 0x8A650, symBinAddr: 0x8A714, symSize: 0xF0 }
  - { offsetInCU: 0x2955B, offset: 0x8850D, size: 0x8, addend: 0x0, symName: __ZN9addr2line8function9name_attr17h01edf63ca0115c37E, symObjAddr: 0x8A740, symBinAddr: 0x8A804, symSize: 0x288 }
  - { offsetInCU: 0x2974E, offset: 0x88700, size: 0x8, addend: 0x0, symName: __ZN4core5slice4sort25insertion_sort_shift_left17h2abe9feb9d21f50cE, symObjAddr: 0x8BFF4, symBinAddr: 0x8C02C, symSize: 0xBC }
  - { offsetInCU: 0x29756, offset: 0x88708, size: 0x8, addend: 0x0, symName: '__ZN5gimli4read4unit33DebugInfoUnitHeadersIter$LT$R$GT$4next17h62a213719d1b978dE', symObjAddr: 0x8C0B0, symBinAddr: 0x8C0E8, symSize: 0x514 }
  - { offsetInCU: 0x2989D, offset: 0x8884F, size: 0x8, addend: 0x0, symName: __ZN4core5slice4sort25insertion_sort_shift_left17h028719f79745e617E, symObjAddr: 0x8E50C, symBinAddr: 0x8E544, symSize: 0xE0 }
  - { offsetInCU: 0x298A5, offset: 0x88857, size: 0x8, addend: 0x0, symName: '__ZN4core3ptr146drop_in_place$LT$alloc..vec..Vec$LT$addr2line..ResUnit$LT$gimli..read..endian_slice..EndianSlice$LT$gimli..endianity..LittleEndian$GT$$GT$$GT$$GT$17h3a1884d4e20bb0d0E', symObjAddr: 0x8E5EC, symBinAddr: 0x8E624, symSize: 0xAC }
  - { offsetInCU: 0x29A6B, offset: 0x88A1D, size: 0x8, addend: 0x0, symName: '__ZN4core5slice4sort12choose_pivot28_$u7b$$u7b$closure$u7d$$u7d$17h6ff671346297a512E', symObjAddr: 0x938B0, symBinAddr: 0x92E40, symSize: 0x180 }
  - { offsetInCU: 0x29A73, offset: 0x88A25, size: 0x8, addend: 0x0, symName: __ZN4core5slice4sort14break_patterns17h850ad9b9c5990559E, symObjAddr: 0x93A30, symBinAddr: 0x1D527C, symSize: 0x164 }
  - { offsetInCU: 0x29F45, offset: 0x88EF7, size: 0x8, addend: 0x0, symName: __ZN4core5slice4sort7recurse17ha3933af2ca23fe9fE, symObjAddr: 0x90F94, symBinAddr: 0x90EFC, symSize: 0x92C }
  - { offsetInCU: 0x29F4D, offset: 0x88EFF, size: 0x8, addend: 0x0, symName: __ZN4core5slice4sort7recurse17ha0255a50868af786E, symObjAddr: 0x918C0, symBinAddr: 0x91828, symSize: 0x9CC }
  - { offsetInCU: 0x2ADE7, offset: 0x89D99, size: 0x8, addend: 0x0, symName: __ZN4core5slice4sort7recurse17ha0255a50868af786E, symObjAddr: 0x918C0, symBinAddr: 0x91828, symSize: 0x9CC }
  - { offsetInCU: 0x2ADEF, offset: 0x89DA1, size: 0x8, addend: 0x0, symName: __ZN4core5slice4sort7recurse17h5ee6413d7d7af253E, symObjAddr: 0x9228C, symBinAddr: 0x921F4, symSize: 0x940 }
  - { offsetInCU: 0x2BD30, offset: 0x8ACE2, size: 0x8, addend: 0x0, symName: __ZN4core5slice4sort7recurse17h5ee6413d7d7af253E, symObjAddr: 0x9228C, symBinAddr: 0x921F4, symSize: 0x940 }
  - { offsetInCU: 0x2BD38, offset: 0x8ACEA, size: 0x8, addend: 0x0, symName: '__ZN5alloc7raw_vec19RawVec$LT$T$C$A$GT$16reserve_for_push17h980a7c800acb35ceE', symObjAddr: 0x92BCC, symBinAddr: 0x92B34, symSize: 0xD0 }
  - { offsetInCU: 0x2CC08, offset: 0x8BBBA, size: 0x8, addend: 0x0, symName: '__ZN4core5slice4sort8heapsort28_$u7b$$u7b$closure$u7d$$u7d$17h86dd37f546116e32E', symObjAddr: 0x943AC, symBinAddr: 0x9322C, symSize: 0x138 }
  - { offsetInCU: 0x2CC10, offset: 0x8BBC2, size: 0x8, addend: 0x0, symName: __ZN4core5slice4sort8heapsort17h52ba8b29633b456aE, symObjAddr: 0x944E4, symBinAddr: 0x1D598C, symSize: 0x218 }
  - { offsetInCU: 0x2CE2F, offset: 0x8BDE1, size: 0x8, addend: 0x0, symName: __ZN4core5slice4sort8heapsort17h11e09bda265b6af4E, symObjAddr: 0x92DFC, symBinAddr: 0x1D4978, symSize: 0x218 }
  - { offsetInCU: 0x2CE37, offset: 0x8BDE9, size: 0x8, addend: 0x0, symName: __ZN4core5slice4sort14break_patterns17h44c1dac55028c2d7E, symObjAddr: 0x93014, symBinAddr: 0x1D4B90, symSize: 0x164 }
  - { offsetInCU: 0x2D15B, offset: 0x8C10D, size: 0x8, addend: 0x0, symName: __ZN4core5slice4sort14break_patterns17h44c1dac55028c2d7E, symObjAddr: 0x93014, symBinAddr: 0x1D4B90, symSize: 0x164 }
  - { offsetInCU: 0x2D163, offset: 0x8C115, size: 0x8, addend: 0x0, symName: __ZN4core5slice4sort22partial_insertion_sort17h2e8189e9e5fab1e9E, symObjAddr: 0x93178, symBinAddr: 0x1D4CF4, symSize: 0x4C4 }
  - { offsetInCU: 0x2D207, offset: 0x8C1B9, size: 0x8, addend: 0x0, symName: __ZN4core5slice4sort22partial_insertion_sort17h2e8189e9e5fab1e9E, symObjAddr: 0x93178, symBinAddr: 0x1D4CF4, symSize: 0x4C4 }
  - { offsetInCU: 0x2D20F, offset: 0x8C1C1, size: 0x8, addend: 0x0, symName: '__ZN4core3ptr89drop_in_place$LT$core..slice..sort..InsertionHole$LT$object..read..ObjectMapEntry$GT$$GT$17h272e61d9fca4a088E', symObjAddr: 0x9363C, symBinAddr: 0x92C90, symSize: 0x14 }
  - { offsetInCU: 0x2D27C, offset: 0x8C22E, size: 0x8, addend: 0x0, symName: __ZN4core5slice4sort25insertion_sort_shift_left17h0c36ea357aea79f0E, symObjAddr: 0x93650, symBinAddr: 0x92CA4, symSize: 0xF8 }
  - { offsetInCU: 0x2D284, offset: 0x8C236, size: 0x8, addend: 0x0, symName: __ZN4core5slice4sort26insertion_sort_shift_right17h61b51fda12a8859cE, symObjAddr: 0x93748, symBinAddr: 0x92D9C, symSize: 0xA4 }
  - { offsetInCU: 0x2D3CB, offset: 0x8C37D, size: 0x8, addend: 0x0, symName: __ZN4core5slice4sort26insertion_sort_shift_right17h61b51fda12a8859cE, symObjAddr: 0x93748, symBinAddr: 0x92D9C, symSize: 0xA4 }
  - { offsetInCU: 0x2D3D3, offset: 0x8C385, size: 0x8, addend: 0x0, symName: __ZN4core5slice4sort8heapsort17h39bc0f6194783334E, symObjAddr: 0x937EC, symBinAddr: 0x1D51B8, symSize: 0xC4 }
  - { offsetInCU: 0x2D3F0, offset: 0x8C3A2, size: 0x8, addend: 0x0, symName: __ZN4core5slice4sort26insertion_sort_shift_right17h61b51fda12a8859cE, symObjAddr: 0x93748, symBinAddr: 0x92D9C, symSize: 0xA4 }
  - { offsetInCU: 0x2D573, offset: 0x8C525, size: 0x8, addend: 0x0, symName: __ZN4core5slice4sort8heapsort17h39bc0f6194783334E, symObjAddr: 0x937EC, symBinAddr: 0x1D51B8, symSize: 0xC4 }
  - { offsetInCU: 0x2D57B, offset: 0x8C52D, size: 0x8, addend: 0x0, symName: '__ZN4core5slice4sort12choose_pivot28_$u7b$$u7b$closure$u7d$$u7d$17h6ff671346297a512E', symObjAddr: 0x938B0, symBinAddr: 0x92E40, symSize: 0x180 }
  - { offsetInCU: 0x2D6CC, offset: 0x8C67E, size: 0x8, addend: 0x0, symName: __ZN4core5slice4sort14break_patterns17h850ad9b9c5990559E, symObjAddr: 0x93A30, symBinAddr: 0x1D527C, symSize: 0x164 }
  - { offsetInCU: 0x2D6D4, offset: 0x8C686, size: 0x8, addend: 0x0, symName: __ZN4core5slice4sort22partial_insertion_sort17h477268a29397e5f5E, symObjAddr: 0x93B94, symBinAddr: 0x1D53E0, symSize: 0x5AC }
  - { offsetInCU: 0x2D778, offset: 0x8C72A, size: 0x8, addend: 0x0, symName: __ZN4core5slice4sort22partial_insertion_sort17h477268a29397e5f5E, symObjAddr: 0x93B94, symBinAddr: 0x1D53E0, symSize: 0x5AC }
  - { offsetInCU: 0x2D780, offset: 0x8C732, size: 0x8, addend: 0x0, symName: '__ZN4core3ptr91drop_in_place$LT$core..slice..sort..InsertionHole$LT$$LP$$RF$$u5b$u8$u5d$$C$u64$RP$$GT$$GT$17hf29b8a27d964a25cE', symObjAddr: 0x94140, symBinAddr: 0x92FC0, symSize: 0x14 }
  - { offsetInCU: 0x2D843, offset: 0x8C7F5, size: 0x8, addend: 0x0, symName: __ZN4core5slice4sort25insertion_sort_shift_left17h0d4b8498836fe5faE, symObjAddr: 0x94154, symBinAddr: 0x92FD4, symSize: 0x154 }
  - { offsetInCU: 0x2D84B, offset: 0x8C7FD, size: 0x8, addend: 0x0, symName: __ZN4core5slice4sort26insertion_sort_shift_right17h77c58fdfd735e9afE, symObjAddr: 0x942A8, symBinAddr: 0x93128, symSize: 0x104 }
  - { offsetInCU: 0x2DACE, offset: 0x8CA80, size: 0x8, addend: 0x0, symName: __ZN4core5slice4sort26insertion_sort_shift_right17h77c58fdfd735e9afE, symObjAddr: 0x942A8, symBinAddr: 0x93128, symSize: 0x104 }
  - { offsetInCU: 0x2DAD6, offset: 0x8CA88, size: 0x8, addend: 0x0, symName: '__ZN4core5slice4sort8heapsort28_$u7b$$u7b$closure$u7d$$u7d$17h86dd37f546116e32E', symObjAddr: 0x943AC, symBinAddr: 0x9322C, symSize: 0x138 }
  - { offsetInCU: 0x2DCCD, offset: 0x8CC7F, size: 0x8, addend: 0x0, symName: __ZN4core5slice4sort8heapsort17h52ba8b29633b456aE, symObjAddr: 0x944E4, symBinAddr: 0x1D598C, symSize: 0x218 }
  - { offsetInCU: 0x2DCD5, offset: 0x8CC87, size: 0x8, addend: 0x0, symName: __ZN4core5slice4sort22partial_insertion_sort17h5f216af793ecdb8aE, symObjAddr: 0x946FC, symBinAddr: 0x1D5BA4, symSize: 0x4C4 }
  - { offsetInCU: 0x2E034, offset: 0x8CFE6, size: 0x8, addend: 0x0, symName: __ZN4core5slice4sort22partial_insertion_sort17h5f216af793ecdb8aE, symObjAddr: 0x946FC, symBinAddr: 0x1D5BA4, symSize: 0x4C4 }
  - { offsetInCU: 0x2E03C, offset: 0x8CFEE, size: 0x8, addend: 0x0, symName: __ZN4core5slice4sort25insertion_sort_shift_left17h6558ce7a974a5ae7E, symObjAddr: 0x94BC0, symBinAddr: 0x93364, symSize: 0xE8 }
  - { offsetInCU: 0x2E0A9, offset: 0x8D05B, size: 0x8, addend: 0x0, symName: __ZN4core5slice4sort25insertion_sort_shift_left17h6558ce7a974a5ae7E, symObjAddr: 0x94BC0, symBinAddr: 0x93364, symSize: 0xE8 }
  - { offsetInCU: 0x2E0B1, offset: 0x8D063, size: 0x8, addend: 0x0, symName: __ZN4core5slice4sort26insertion_sort_shift_right17h5cf9c82a72068b96E, symObjAddr: 0x94CA8, symBinAddr: 0x9344C, symSize: 0x90 }
  - { offsetInCU: 0x2E1F8, offset: 0x8D1AA, size: 0x8, addend: 0x0, symName: __ZN4core5slice4sort26insertion_sort_shift_right17h5cf9c82a72068b96E, symObjAddr: 0x94CA8, symBinAddr: 0x9344C, symSize: 0x90 }
  - { offsetInCU: 0x2E200, offset: 0x8D1B2, size: 0x8, addend: 0x0, symName: __ZN3std3sys6common14small_c_string24run_with_cstr_allocating17hb11e6bb24e18c519E, symObjAddr: 0x94D38, symBinAddr: 0x1D6068, symSize: 0x90 }
  - { offsetInCU: 0x2E21D, offset: 0x8D1CF, size: 0x8, addend: 0x0, symName: __ZN4core5slice4sort26insertion_sort_shift_right17h5cf9c82a72068b96E, symObjAddr: 0x94CA8, symBinAddr: 0x9344C, symSize: 0x90 }
  - { offsetInCU: 0x2EC7B, offset: 0x8DC2D, size: 0x8, addend: 0x0, symName: __ZN4core9panicking13assert_failed17h92b5a7129e0a3878E, symObjAddr: 0x7848C, symBinAddr: 0x1D3CF8, symSize: 0x38 }
  - { offsetInCU: 0x2EC83, offset: 0x8DC35, size: 0x8, addend: 0x0, symName: '__ZN42_$LT$$RF$T$u20$as$u20$core..fmt..Debug$GT$3fmt17h7c180a1a716be39bE', symObjAddr: 0x784C4, symBinAddr: 0x78FA0, symSize: 0xFC }
  - { offsetInCU: 0x2EC9C, offset: 0x8DC4E, size: 0x8, addend: 0x0, symName: __ZN4core9panicking13assert_failed17h4b58689a2eaf26d1E, symObjAddr: 0x791F0, symBinAddr: 0x1D420C, symSize: 0x3C }
  - { offsetInCU: 0x2ECA4, offset: 0x8DC56, size: 0x8, addend: 0x0, symName: '__ZN42_$LT$$RF$T$u20$as$u20$core..fmt..Debug$GT$3fmt17hc054c02f795023f9E', symObjAddr: 0x7922C, symBinAddr: 0x797F0, symSize: 0x228 }
  - { offsetInCU: 0x2ECDE, offset: 0x8DC90, size: 0x8, addend: 0x0, symName: '__ZN4core3ops8function6FnOnce40call_once$u7b$$u7b$vtable.shim$u7d$$u7d$17h2c2fb2ab13084832E', symObjAddr: 0x78758, symBinAddr: 0x79234, symSize: 0xC }
  - { offsetInCU: 0x2ECE6, offset: 0x8DC98, size: 0x8, addend: 0x0, symName: '__ZN3std3sys11personality3gcc14find_eh_action28_$u7b$$u7b$closure$u7d$$u7d$17h8c0767e50b9009fcE', symObjAddr: 0x78764, symBinAddr: 0x79240, symSize: 0xC }
  - { offsetInCU: 0x2ED0A, offset: 0x8DCBC, size: 0x8, addend: 0x0, symName: '__ZN3std3sys11personality3gcc14find_eh_action28_$u7b$$u7b$closure$u7d$$u7d$17h8c0767e50b9009fcE', symObjAddr: 0x78764, symBinAddr: 0x79240, symSize: 0xC }
  - { offsetInCU: 0x2ED23, offset: 0x8DCD5, size: 0x8, addend: 0x0, symName: '__ZN3std3sys11personality3gcc14find_eh_action28_$u7b$$u7b$closure$u7d$$u7d$17h8c0767e50b9009fcE', symObjAddr: 0x78764, symBinAddr: 0x79240, symSize: 0xC }
  - { offsetInCU: 0x2ED40, offset: 0x8DCF2, size: 0x8, addend: 0x0, symName: '__ZN4core3ops8function6FnOnce40call_once$u7b$$u7b$vtable.shim$u7d$$u7d$17h6b44f67e48cc220eE', symObjAddr: 0x78770, symBinAddr: 0x7924C, symSize: 0xC }
  - { offsetInCU: 0x2ED48, offset: 0x8DCFA, size: 0x8, addend: 0x0, symName: '__ZN3std3sys11personality3gcc14find_eh_action28_$u7b$$u7b$closure$u7d$$u7d$17hffe6f4adaa5dd51bE', symObjAddr: 0x7877C, symBinAddr: 0x79258, symSize: 0xC }
  - { offsetInCU: 0x2ED6C, offset: 0x8DD1E, size: 0x8, addend: 0x0, symName: '__ZN3std3sys11personality3gcc14find_eh_action28_$u7b$$u7b$closure$u7d$$u7d$17hffe6f4adaa5dd51bE', symObjAddr: 0x7877C, symBinAddr: 0x79258, symSize: 0xC }
  - { offsetInCU: 0x2ED85, offset: 0x8DD37, size: 0x8, addend: 0x0, symName: '__ZN3std3sys11personality3gcc14find_eh_action28_$u7b$$u7b$closure$u7d$$u7d$17hffe6f4adaa5dd51bE', symObjAddr: 0x7877C, symBinAddr: 0x79258, symSize: 0xC }
  - { offsetInCU: 0x2EDDA, offset: 0x8DD8C, size: 0x8, addend: 0x0, symName: '__ZN4core3ops8function6FnOnce40call_once$u7b$$u7b$vtable.shim$u7d$$u7d$17hc035d292f60f9dceE', symObjAddr: 0x96154, symBinAddr: 0x9462C, symSize: 0x4 }
  - { offsetInCU: 0x2EDE2, offset: 0x8DD94, size: 0x8, addend: 0x0, symName: '__ZN3std10sys_common9backtrace10_print_fmt28_$u7b$$u7b$closure$u7d$$u7d$17h6f1caa974962e5baE', symObjAddr: 0x96158, symBinAddr: 0x94630, symSize: 0x279C }
  - { offsetInCU: 0x2EDFE, offset: 0x8DDB0, size: 0x8, addend: 0x0, symName: '__ZN4core3ops8function6FnOnce40call_once$u7b$$u7b$vtable.shim$u7d$$u7d$17hc035d292f60f9dceE', symObjAddr: 0x96154, symBinAddr: 0x9462C, symSize: 0x4 }
  - { offsetInCU: 0x2EE06, offset: 0x8DDB8, size: 0x8, addend: 0x0, symName: '__ZN3std10sys_common9backtrace10_print_fmt28_$u7b$$u7b$closure$u7d$$u7d$17h6f1caa974962e5baE', symObjAddr: 0x96158, symBinAddr: 0x94630, symSize: 0x279C }
  - { offsetInCU: 0x2EE22, offset: 0x8DDD4, size: 0x8, addend: 0x0, symName: '__ZN4core3ops8function6FnOnce40call_once$u7b$$u7b$vtable.shim$u7d$$u7d$17h4526e73041e4eb08E', symObjAddr: 0x99064, symBinAddr: 0x9753C, symSize: 0x98 }
  - { offsetInCU: 0x2EE2A, offset: 0x8DDDC, size: 0x8, addend: 0x0, symName: __ZN3std5alloc24default_alloc_error_hook17h9bd87d36708bf1e8E, symObjAddr: 0x990FC, symBinAddr: 0x975D4, symSize: 0xD4 }
  - { offsetInCU: 0x30F18, offset: 0x8FECA, size: 0x8, addend: 0x0, symName: '__ZN55_$LT$$RF$str$u20$as$u20$core..str..pattern..Pattern$GT$15is_contained_in17h98130f7276e2d873E', symObjAddr: 0x98B50, symBinAddr: 0x97028, symSize: 0x514 }
  - { offsetInCU: 0x30F20, offset: 0x8FED2, size: 0x8, addend: 0x0, symName: '__ZN4core3ops8function6FnOnce40call_once$u7b$$u7b$vtable.shim$u7d$$u7d$17h4526e73041e4eb08E', symObjAddr: 0x99064, symBinAddr: 0x9753C, symSize: 0x98 }
  - { offsetInCU: 0x3153B, offset: 0x904ED, size: 0x8, addend: 0x0, symName: '__ZN36_$LT$T$u20$as$u20$core..any..Any$GT$7type_id17h428b29c4ebebc715E', symObjAddr: 0x99D4C, symBinAddr: 0x98224, symSize: 0x24 }
  - { offsetInCU: 0x31543, offset: 0x904F5, size: 0x8, addend: 0x0, symName: '__ZN50_$LT$$RF$mut$u20$W$u20$as$u20$core..fmt..Write$GT$9write_str17hac5bc30f67dc8d07E', symObjAddr: 0x99D70, symBinAddr: 0x98248, symSize: 0x74 }
  - { offsetInCU: 0x3155B, offset: 0x9050D, size: 0x8, addend: 0x0, symName: '__ZN36_$LT$T$u20$as$u20$core..any..Any$GT$7type_id17h6d52501c103c0960E', symObjAddr: 0x99FA8, symBinAddr: 0x98480, symSize: 0x24 }
  - { offsetInCU: 0x31563, offset: 0x90515, size: 0x8, addend: 0x0, symName: __ZN3std3sys4unix2fs6unlink17h9276c24154b85bfdE, symObjAddr: 0x99FCC, symBinAddr: 0x984A4, symSize: 0x198 }
  - { offsetInCU: 0x315AE, offset: 0x90560, size: 0x8, addend: 0x0, symName: '__ZN72_$LT$alloc..boxed..Box$LT$T$C$A$GT$$u20$as$u20$core..ops..drop..Drop$GT$4drop17h03b51f5e83a752bdE', symObjAddr: 0x77F38, symBinAddr: 0x78A4C, symSize: 0xC }
  - { offsetInCU: 0x315B6, offset: 0x90568, size: 0x8, addend: 0x0, symName: '__ZN4core3ptr76drop_in_place$LT$std..io..Write..write_fmt..Adapter$LT$std..fs..File$GT$$GT$17haf6e794a5447c50eE', symObjAddr: 0x77F44, symBinAddr: 0x78A58, symSize: 0x98 }
  - { offsetInCU: 0x3171A, offset: 0x906CC, size: 0x8, addend: 0x0, symName: '__ZN72_$LT$alloc..boxed..Box$LT$T$C$A$GT$$u20$as$u20$core..ops..drop..Drop$GT$4drop17h1b10f03805494cabE', symObjAddr: 0x8F6D8, symBinAddr: 0x8F710, symSize: 0xC }
  - { offsetInCU: 0x31722, offset: 0x906D4, size: 0x8, addend: 0x0, symName: '__ZN4core3ptr217drop_in_place$LT$addr2line..lazy..LazyCell$LT$core..result..Result$LT$addr2line..function..Functions$LT$gimli..read..endian_slice..EndianSlice$LT$gimli..endianity..LittleEndian$GT$$GT$$C$gimli..read..Error$GT$$GT$$GT$17ha5bf901c04b82b1dE', symObjAddr: 0x8F6E4, symBinAddr: 0x8F71C, symSize: 0x14 }
  - { offsetInCU: 0x317AC, offset: 0x9075E, size: 0x8, addend: 0x0, symName: '__ZN72_$LT$alloc..boxed..Box$LT$T$C$A$GT$$u20$as$u20$core..ops..drop..Drop$GT$4drop17h3ce3b3624f54ecfaE', symObjAddr: 0x8F828, symBinAddr: 0x8F860, symSize: 0x4 }
  - { offsetInCU: 0x317B4, offset: 0x90766, size: 0x8, addend: 0x0, symName: '__ZN5gimli4read6abbrev20DebugAbbrev$LT$R$GT$13abbreviations17h563788f05fb4791eE', symObjAddr: 0x8F82C, symBinAddr: 0x8F864, symSize: 0x7BC }
  - { offsetInCU: 0x317C9, offset: 0x9077B, size: 0x8, addend: 0x0, symName: '__ZN72_$LT$alloc..boxed..Box$LT$T$C$A$GT$$u20$as$u20$core..ops..drop..Drop$GT$4drop17h3ce3b3624f54ecfaE', symObjAddr: 0x8F828, symBinAddr: 0x8F860, symSize: 0x4 }
  - { offsetInCU: 0x317D1, offset: 0x90783, size: 0x8, addend: 0x0, symName: '__ZN5gimli4read6abbrev20DebugAbbrev$LT$R$GT$13abbreviations17h563788f05fb4791eE', symObjAddr: 0x8F82C, symBinAddr: 0x8F864, symSize: 0x7BC }
  - { offsetInCU: 0x317E3, offset: 0x90795, size: 0x8, addend: 0x0, symName: '__ZN72_$LT$alloc..boxed..Box$LT$T$C$A$GT$$u20$as$u20$core..ops..drop..Drop$GT$4drop17h3ce3b3624f54ecfaE', symObjAddr: 0x8F828, symBinAddr: 0x8F860, symSize: 0x4 }
  - { offsetInCU: 0x317EB, offset: 0x9079D, size: 0x8, addend: 0x0, symName: '__ZN5gimli4read6abbrev20DebugAbbrev$LT$R$GT$13abbreviations17h563788f05fb4791eE', symObjAddr: 0x8F82C, symBinAddr: 0x8F864, symSize: 0x7BC }
  - { offsetInCU: 0x317FC, offset: 0x907AE, size: 0x8, addend: 0x0, symName: '__ZN72_$LT$alloc..boxed..Box$LT$T$C$A$GT$$u20$as$u20$core..ops..drop..Drop$GT$4drop17h3ce3b3624f54ecfaE', symObjAddr: 0x8F828, symBinAddr: 0x8F860, symSize: 0x4 }
  - { offsetInCU: 0x31804, offset: 0x907B6, size: 0x8, addend: 0x0, symName: '__ZN5gimli4read6abbrev20DebugAbbrev$LT$R$GT$13abbreviations17h563788f05fb4791eE', symObjAddr: 0x8F82C, symBinAddr: 0x8F864, symSize: 0x7BC }
  - { offsetInCU: 0x31815, offset: 0x907C7, size: 0x8, addend: 0x0, symName: '__ZN72_$LT$alloc..boxed..Box$LT$T$C$A$GT$$u20$as$u20$core..ops..drop..Drop$GT$4drop17h3ce3b3624f54ecfaE', symObjAddr: 0x8F828, symBinAddr: 0x8F860, symSize: 0x4 }
  - { offsetInCU: 0x3181D, offset: 0x907CF, size: 0x8, addend: 0x0, symName: '__ZN5gimli4read6abbrev20DebugAbbrev$LT$R$GT$13abbreviations17h563788f05fb4791eE', symObjAddr: 0x8F82C, symBinAddr: 0x8F864, symSize: 0x7BC }
  - { offsetInCU: 0x31C56, offset: 0x90C08, size: 0x8, addend: 0x0, symName: '__ZN5alloc4sync16Arc$LT$T$C$A$GT$9drop_slow17he0278811facb347dE', symObjAddr: 0x78788, symBinAddr: 0x79264, symSize: 0x70 }
  - { offsetInCU: 0x31C5E, offset: 0x90C10, size: 0x8, addend: 0x0, symName: __ZN3std6thread6Thread3new17h00d4dafe408230f6E, symObjAddr: 0x787F8, symBinAddr: 0x792D4, symSize: 0x128 }
  - { offsetInCU: 0x31F6B, offset: 0x90F1D, size: 0x8, addend: 0x0, symName: '__ZN5alloc4sync16Arc$LT$T$C$A$GT$9drop_slow17h3449ca710707635fE', symObjAddr: 0x79F10, symBinAddr: 0x7A290, symSize: 0x2C }
  - { offsetInCU: 0x31F73, offset: 0x90F25, size: 0x8, addend: 0x0, symName: __ZN3std10sys_common11thread_info14current_thread17h52eab3add00e5baeE, symObjAddr: 0x79F3C, symBinAddr: 0x7A2BC, symSize: 0xC0 }
  - { offsetInCU: 0x31F90, offset: 0x90F42, size: 0x8, addend: 0x0, symName: '__ZN5alloc4sync16Arc$LT$T$C$A$GT$9drop_slow17h3449ca710707635fE', symObjAddr: 0x79F10, symBinAddr: 0x7A290, symSize: 0x2C }
  - { offsetInCU: 0x31FAA, offset: 0x90F5C, size: 0x8, addend: 0x0, symName: '__ZN5alloc4sync16Arc$LT$T$C$A$GT$9drop_slow17h3449ca710707635fE', symObjAddr: 0x79F10, symBinAddr: 0x7A290, symSize: 0x2C }
  - { offsetInCU: 0x31FC4, offset: 0x90F76, size: 0x8, addend: 0x0, symName: '__ZN5alloc4sync16Arc$LT$T$C$A$GT$9drop_slow17h3449ca710707635fE', symObjAddr: 0x79F10, symBinAddr: 0x7A290, symSize: 0x2C }
  - { offsetInCU: 0x32133, offset: 0x910E5, size: 0x8, addend: 0x0, symName: '__ZN5alloc4sync16Arc$LT$T$C$A$GT$9drop_slow17h93f86017003e80ddE', symObjAddr: 0x7FFDC, symBinAddr: 0x80180, symSize: 0x7C }
  - { offsetInCU: 0x3213B, offset: 0x910ED, size: 0x8, addend: 0x0, symName: '__ZN4core3ptr90drop_in_place$LT$core..result..Result$LT$std..fs..DirEntry$C$std..io..error..Error$GT$$GT$17h48686246d12d841bE', symObjAddr: 0x80058, symBinAddr: 0x801FC, symSize: 0xC8 }
  - { offsetInCU: 0x32454, offset: 0x91406, size: 0x8, addend: 0x0, symName: '__ZN5alloc4sync16Arc$LT$T$C$A$GT$9drop_slow17hcf0586bfe44327d0E', symObjAddr: 0x8687C, symBinAddr: 0x86940, symSize: 0xC0 }
  - { offsetInCU: 0x3245C, offset: 0x9140E, size: 0x8, addend: 0x0, symName: '__ZN4core3ptr174drop_in_place$LT$core..result..Result$LT$addr2line..FrameIter$LT$gimli..read..endian_slice..EndianSlice$LT$gimli..endianity..LittleEndian$GT$$GT$$C$gimli..read..Error$GT$$GT$17h4585b46a19f33e14E', symObjAddr: 0x8693C, symBinAddr: 0x86A00, symSize: 0x24 }
  - { offsetInCU: 0x32822, offset: 0x917D4, size: 0x8, addend: 0x0, symName: '__ZN5alloc4sync16Arc$LT$T$C$A$GT$9drop_slow17h563a95246b38a5f9E', symObjAddr: 0x8698C, symBinAddr: 0x86A50, symSize: 0x13C }
  - { offsetInCU: 0x3282A, offset: 0x917DC, size: 0x8, addend: 0x0, symName: '__ZN5alloc11collections5btree3map25IntoIter$LT$K$C$V$C$A$GT$10dying_next17hc375279a0b01fc0fE', symObjAddr: 0x86AC8, symBinAddr: 0x86B8C, symSize: 0x1A0 }
  - { offsetInCU: 0x32DD8, offset: 0x91D8A, size: 0x8, addend: 0x0, symName: '__ZN5alloc4sync16Arc$LT$T$C$A$GT$9drop_slow17h89118e0a8fa36af5E', symObjAddr: 0x95A54, symBinAddr: 0x93F38, symSize: 0x98 }
  - { offsetInCU: 0x32DE0, offset: 0x91D92, size: 0x8, addend: 0x0, symName: _rust_panic, symObjAddr: 0x95AEC, symBinAddr: 0x93FD0, symSize: 0xC }
  - { offsetInCU: 0x337C0, offset: 0x92772, size: 0x8, addend: 0x0, symName: '__ZN5alloc7raw_vec19RawVec$LT$T$C$A$GT$16reserve_for_push17hb96a4e9f4eb15290E', symObjAddr: 0x83224, symBinAddr: 0x832E8, symSize: 0xC0 }
  - { offsetInCU: 0x337C8, offset: 0x9277A, size: 0x8, addend: 0x0, symName: '__ZN4core3ptr275drop_in_place$LT$gimli..read..line..LineRows$LT$gimli..read..endian_slice..EndianSlice$LT$gimli..endianity..LittleEndian$GT$$C$gimli..read..line..IncompleteLineProgram$LT$gimli..read..endian_slice..EndianSlice$LT$gimli..endianity..LittleEndian$GT$$C$usize$GT$$C$usize$GT$$GT$17h6661730995cc1421E', symObjAddr: 0x832E4, symBinAddr: 0x833A8, symSize: 0x64 }
  - { offsetInCU: 0x33976, offset: 0x92928, size: 0x8, addend: 0x0, symName: '__ZN5alloc7raw_vec19RawVec$LT$T$C$A$GT$16reserve_for_push17h3148143cd387ae91E', symObjAddr: 0x83428, symBinAddr: 0x834EC, symSize: 0xD0 }
  - { offsetInCU: 0x3397E, offset: 0x92930, size: 0x8, addend: 0x0, symName: '__ZN5alloc7raw_vec19RawVec$LT$T$C$A$GT$16reserve_for_push17h2eb50c5d73fbb885E', symObjAddr: 0x834F8, symBinAddr: 0x835BC, symSize: 0xC0 }
  - { offsetInCU: 0x33AF0, offset: 0x92AA2, size: 0x8, addend: 0x0, symName: '__ZN5alloc7raw_vec19RawVec$LT$T$C$A$GT$16reserve_for_push17h2eb50c5d73fbb885E', symObjAddr: 0x834F8, symBinAddr: 0x835BC, symSize: 0xC0 }
  - { offsetInCU: 0x33AF8, offset: 0x92AAA, size: 0x8, addend: 0x0, symName: '__ZN4core3ptr65drop_in_place$LT$alloc..vec..Vec$LT$alloc..string..String$GT$$GT$17hd512c16649897099E', symObjAddr: 0x835B8, symBinAddr: 0x8367C, symSize: 0x74 }
  - { offsetInCU: 0x33DE2, offset: 0x92D94, size: 0x8, addend: 0x0, symName: '__ZN5alloc7raw_vec19RawVec$LT$T$C$A$GT$16reserve_for_push17h14874c8f61deaad4E', symObjAddr: 0x86C6C, symBinAddr: 0x86D30, symSize: 0xC0 }
  - { offsetInCU: 0x33DEA, offset: 0x92D9C, size: 0x8, addend: 0x0, symName: '__ZN4core3ptr130drop_in_place$LT$addr2line..SplitDwarfLoad$LT$gimli..read..endian_slice..EndianSlice$LT$gimli..endianity..LittleEndian$GT$$GT$$GT$17h43d571067a9fa8b8E', symObjAddr: 0x86D2C, symBinAddr: 0x86DF0, symSize: 0x24 }
  - { offsetInCU: 0x33F98, offset: 0x92F4A, size: 0x8, addend: 0x0, symName: '__ZN5alloc7raw_vec19RawVec$LT$T$C$A$GT$16reserve_for_push17h878bf804055cf40eE', symObjAddr: 0x88F58, symBinAddr: 0x8901C, symSize: 0xD4 }
  - { offsetInCU: 0x33FA0, offset: 0x92F52, size: 0x8, addend: 0x0, symName: '__ZN4core3ptr250drop_in_place$LT$$LP$gimli..read..UnitOffset$C$addr2line..lazy..LazyCell$LT$core..result..Result$LT$addr2line..function..Function$LT$gimli..read..endian_slice..EndianSlice$LT$gimli..endianity..LittleEndian$GT$$GT$$C$gimli..read..Error$GT$$GT$$RP$$GT$17hb8a35d34f9ed8bd0E', symObjAddr: 0x8902C, symBinAddr: 0x890F0, symSize: 0x50 }
  - { offsetInCU: 0x3412E, offset: 0x930E0, size: 0x8, addend: 0x0, symName: '__ZN5alloc7raw_vec19RawVec$LT$T$C$A$GT$16reserve_for_push17h36e2f4f8716c9db5E', symObjAddr: 0x8AD84, symBinAddr: 0x8AE48, symSize: 0xD0 }
  - { offsetInCU: 0x34136, offset: 0x930E8, size: 0x8, addend: 0x0, symName: '__ZN5gimli4read4unit32AttributeValue$LT$R$C$Offset$GT$8u8_value17h7844393106642b4fE', symObjAddr: 0x8AE54, symBinAddr: 0x8AF18, symSize: 0xA0 }
  - { offsetInCU: 0x342D2, offset: 0x93284, size: 0x8, addend: 0x0, symName: '__ZN5alloc7raw_vec19RawVec$LT$T$C$A$GT$16reserve_for_push17ha1de6ea2eab46aebE', symObjAddr: 0x8E058, symBinAddr: 0x8E090, symSize: 0xD4 }
  - { offsetInCU: 0x342DA, offset: 0x9328C, size: 0x8, addend: 0x0, symName: '__ZN4core3ptr123drop_in_place$LT$addr2line..ResUnit$LT$gimli..read..endian_slice..EndianSlice$LT$gimli..endianity..LittleEndian$GT$$GT$$GT$17h831838c0a4d7218cE', symObjAddr: 0x8E12C, symBinAddr: 0x8E164, symSize: 0x178 }
  - { offsetInCU: 0x34488, offset: 0x9343A, size: 0x8, addend: 0x0, symName: '__ZN5alloc7raw_vec19RawVec$LT$T$C$A$GT$16reserve_for_push17hd246ffc0cef05668E', symObjAddr: 0x8E7D8, symBinAddr: 0x8E810, symSize: 0xD4 }
  - { offsetInCU: 0x34490, offset: 0x93442, size: 0x8, addend: 0x0, symName: '__ZN4core3ptr123drop_in_place$LT$addr2line..SupUnit$LT$gimli..read..endian_slice..EndianSlice$LT$gimli..endianity..LittleEndian$GT$$GT$$GT$17hdc4355ae6b740ddbE', symObjAddr: 0x8E8AC, symBinAddr: 0x8E8E4, symSize: 0xA8 }
  - { offsetInCU: 0x34668, offset: 0x9361A, size: 0x8, addend: 0x0, symName: '__ZN5alloc7raw_vec19RawVec$LT$T$C$A$GT$16reserve_for_push17h5027895f8a71a950E', symObjAddr: 0x90C28, symBinAddr: 0x90C60, symSize: 0xC0 }
  - { offsetInCU: 0x34670, offset: 0x93622, size: 0x8, addend: 0x0, symName: '__ZN4core3ptr52drop_in_place$LT$gimli..read..abbrev..Attributes$GT$17h7bf487a938f2a47cE', symObjAddr: 0x90CE8, symBinAddr: 0x90D20, symSize: 0x20 }
  - { offsetInCU: 0x3483C, offset: 0x937EE, size: 0x8, addend: 0x0, symName: '__ZN5alloc7raw_vec19RawVec$LT$T$C$A$GT$16reserve_for_push17h980a7c800acb35ceE', symObjAddr: 0x92BCC, symBinAddr: 0x92B34, symSize: 0xD0 }
  - { offsetInCU: 0x34844, offset: 0x937F6, size: 0x8, addend: 0x0, symName: '__ZN5alloc7raw_vec19RawVec$LT$T$C$A$GT$7reserve21do_reserve_and_handle17h65cd5168b533caf8E', symObjAddr: 0x92C9C, symBinAddr: 0x1D48A4, symSize: 0xD4 }
  - { offsetInCU: 0x349C4, offset: 0x93976, size: 0x8, addend: 0x0, symName: '__ZN5alloc7raw_vec19RawVec$LT$T$C$A$GT$16reserve_for_push17h996fd8cd5db8b93dE', symObjAddr: 0x95D44, symBinAddr: 0x94228, symSize: 0xB8 }
  - { offsetInCU: 0x349CC, offset: 0x9397E, size: 0x8, addend: 0x0, symName: '__ZN57_$LT$std..path..Display$u20$as$u20$core..fmt..Display$GT$3fmt17h82cf6c9fd5fc5d7eE', symObjAddr: 0x95DFC, symBinAddr: 0x942E0, symSize: 0x10 }
  - { offsetInCU: 0x34E5D, offset: 0x93E0F, size: 0x8, addend: 0x0, symName: '__ZN5alloc7raw_vec19RawVec$LT$T$C$A$GT$7reserve21do_reserve_and_handle17h56e59daa7ae6851dE', symObjAddr: 0x7B1F0, symBinAddr: 0x1D448C, symSize: 0xB8 }
  - { offsetInCU: 0x34E65, offset: 0x93E17, size: 0x8, addend: 0x0, symName: __ZN5alloc7raw_vec11finish_grow17h606d83ffebc1312eE, symObjAddr: 0x7B2A8, symBinAddr: 0x7B570, symSize: 0x168 }
  - { offsetInCU: 0x34FDB, offset: 0x93F8D, size: 0x8, addend: 0x0, symName: '__ZN5alloc7raw_vec19RawVec$LT$T$C$A$GT$7reserve21do_reserve_and_handle17h4d374a5f31be53cdE', symObjAddr: 0x7B5FC, symBinAddr: 0x1D4594, symSize: 0xD4 }
  - { offsetInCU: 0x34FE3, offset: 0x93F95, size: 0x8, addend: 0x0, symName: '__ZN4core3ptr95drop_in_place$LT$core..option..IntoIter$LT$std..backtrace_rs..symbolize..gimli..Library$GT$$GT$17h15e05c9b50d6d7ffE', symObjAddr: 0x7B6D0, symBinAddr: 0x7B874, symSize: 0x48 }
  - { offsetInCU: 0x35173, offset: 0x94125, size: 0x8, addend: 0x0, symName: '__ZN5alloc7raw_vec19RawVec$LT$T$C$A$GT$7reserve21do_reserve_and_handle17ha8bd5ae3c53de645E', symObjAddr: 0x802B8, symBinAddr: 0x1D4668, symSize: 0xE0 }
  - { offsetInCU: 0x3517B, offset: 0x9412D, size: 0x8, addend: 0x0, symName: __ZN3std12backtrace_rs9symbolize5gimli7Context11find_frames17hca8e15bb7938c3fcE, symObjAddr: 0x80398, symBinAddr: 0x8045C, symSize: 0x3E4 }
  - { offsetInCU: 0x3530C, offset: 0x942BE, size: 0x8, addend: 0x0, symName: '__ZN5alloc7raw_vec19RawVec$LT$T$C$A$GT$7reserve21do_reserve_and_handle17h874de12a6dd843f4E', symObjAddr: 0x90EC4, symBinAddr: 0x1D47D4, symSize: 0xD0 }
  - { offsetInCU: 0x35314, offset: 0x942C6, size: 0x8, addend: 0x0, symName: __ZN4core5slice4sort7recurse17ha3933af2ca23fe9fE, symObjAddr: 0x90F94, symBinAddr: 0x90EFC, symSize: 0x92C }
  - { offsetInCU: 0x35469, offset: 0x9441B, size: 0x8, addend: 0x0, symName: '__ZN5alloc7raw_vec19RawVec$LT$T$C$A$GT$7reserve21do_reserve_and_handle17h65cd5168b533caf8E', symObjAddr: 0x92C9C, symBinAddr: 0x1D48A4, symSize: 0xD4 }
  - { offsetInCU: 0x35471, offset: 0x94423, size: 0x8, addend: 0x0, symName: '__ZN4core3ptr44drop_in_place$LT$object..read..ObjectMap$GT$17hf0c6e58a46a9ab96E', symObjAddr: 0x92D70, symBinAddr: 0x92C04, symSize: 0x44 }
  - { offsetInCU: 0x35603, offset: 0x945B5, size: 0x8, addend: 0x0, symName: __ZN5alloc7raw_vec11finish_grow17h606d83ffebc1312eE, symObjAddr: 0x7B2A8, symBinAddr: 0x7B570, symSize: 0x168 }
  - { offsetInCU: 0x3560B, offset: 0x945BD, size: 0x8, addend: 0x0, symName: __ZN3std9panicking11panic_count17is_zero_slow_path17hdc4f4b2b31f5bfcbE, symObjAddr: 0x7B410, symBinAddr: 0x1D4544, symSize: 0x50 }
  - { offsetInCU: 0x365BA, offset: 0x9556C, size: 0x8, addend: 0x0, symName: '__ZN58_$LT$alloc..string..String$u20$as$u20$core..fmt..Debug$GT$3fmt17hd447c46a5059a550E.1356', symObjAddr: 0x79D58, symBinAddr: 0x7A114, symSize: 0x18 }
  - { offsetInCU: 0x365C2, offset: 0x95574, size: 0x8, addend: 0x0, symName: '__ZN62_$LT$std..io..error..ErrorKind$u20$as$u20$core..fmt..Debug$GT$3fmt17h2a1395b5c37417e6E', symObjAddr: 0x79D70, symBinAddr: 0x7A12C, symSize: 0x30 }
  - { offsetInCU: 0x365DF, offset: 0x95591, size: 0x8, addend: 0x0, symName: '__ZN58_$LT$alloc..string..String$u20$as$u20$core..fmt..Debug$GT$3fmt17hd447c46a5059a550E.1356', symObjAddr: 0x79D58, symBinAddr: 0x7A114, symSize: 0x18 }
  - { offsetInCU: 0x365F9, offset: 0x955AB, size: 0x8, addend: 0x0, symName: '__ZN58_$LT$alloc..string..String$u20$as$u20$core..fmt..Debug$GT$3fmt17hd447c46a5059a550E.1356', symObjAddr: 0x79D58, symBinAddr: 0x7A114, symSize: 0x18 }
  - { offsetInCU: 0x36613, offset: 0x955C5, size: 0x8, addend: 0x0, symName: '__ZN58_$LT$alloc..string..String$u20$as$u20$core..fmt..Debug$GT$3fmt17hd447c46a5059a550E.1356', symObjAddr: 0x79D58, symBinAddr: 0x7A114, symSize: 0x18 }
  - { offsetInCU: 0x3662D, offset: 0x955DF, size: 0x8, addend: 0x0, symName: '__ZN58_$LT$alloc..string..String$u20$as$u20$core..fmt..Debug$GT$3fmt17hd447c46a5059a550E.1356', symObjAddr: 0x79D58, symBinAddr: 0x7A114, symSize: 0x18 }
  - { offsetInCU: 0x366D4, offset: 0x95686, size: 0x8, addend: 0x0, symName: '__ZN60_$LT$alloc..string..String$u20$as$u20$core..fmt..Display$GT$3fmt17h34b5edf68021e711E.1367', symObjAddr: 0x95938, symBinAddr: 0x93F24, symSize: 0x14 }
  - { offsetInCU: 0x366DC, offset: 0x9568E, size: 0x8, addend: 0x0, symName: __ZN3std3sys6common14small_c_string24run_with_cstr_allocating17hf7b60259cefba858E, symObjAddr: 0x9594C, symBinAddr: 0x1D6220, symSize: 0x108 }
  - { offsetInCU: 0x36770, offset: 0x95722, size: 0x8, addend: 0x0, symName: __ZN3std3sys6common14small_c_string24run_with_cstr_allocating17hf7b60259cefba858E, symObjAddr: 0x9594C, symBinAddr: 0x1D6220, symSize: 0x108 }
  - { offsetInCU: 0x36B92, offset: 0x95B44, size: 0x8, addend: 0x0, symName: '__ZN5alloc11collections5btree3map25IntoIter$LT$K$C$V$C$A$GT$10dying_next17hc375279a0b01fc0fE', symObjAddr: 0x86AC8, symBinAddr: 0x86B8C, symSize: 0x1A0 }
  - { offsetInCU: 0x36B9A, offset: 0x95B4C, size: 0x8, addend: 0x0, symName: '__ZN4core3ptr72drop_in_place$LT$alloc..collections..btree..mem..replace..PanicGuard$GT$17h291aec5f126a2b85E', symObjAddr: 0x86C68, symBinAddr: 0x86D2C, symSize: 0x4 }
  - { offsetInCU: 0x3785D, offset: 0x9680F, size: 0x8, addend: 0x0, symName: __ZN6object4read7archive13ArchiveMember12parse_aixbig17h67bef42cd046e607E, symObjAddr: 0x80A4C, symBinAddr: 0x80B10, symSize: 0x1B4 }
  - { offsetInCU: 0x37865, offset: 0x96817, size: 0x8, addend: 0x0, symName: __ZN6object4read7archive13ArchiveMember5parse17h58fafd82ddcbee44E, symObjAddr: 0x80C00, symBinAddr: 0x80CC4, symSize: 0x38C }
  - { offsetInCU: 0x379B5, offset: 0x96967, size: 0x8, addend: 0x0, symName: __ZN6object4read7archive13ArchiveMember5parse17h58fafd82ddcbee44E, symObjAddr: 0x80C00, symBinAddr: 0x80CC4, symSize: 0x38C }
  - { offsetInCU: 0x379DE, offset: 0x96990, size: 0x8, addend: 0x0, symName: __ZN6object4read7archive13ArchiveMember5parse17h58fafd82ddcbee44E, symObjAddr: 0x80C00, symBinAddr: 0x80CC4, symSize: 0x38C }
  - { offsetInCU: 0x379E6, offset: 0x96998, size: 0x8, addend: 0x0, symName: __ZN6object4read7archive23parse_bsd_extended_name17hd586d8088c8c5834E, symObjAddr: 0x80F8C, symBinAddr: 0x81050, symSize: 0x2B8 }
  - { offsetInCU: 0x37DC1, offset: 0x96D73, size: 0x8, addend: 0x0, symName: __ZN6object4read7archive23parse_bsd_extended_name17hd586d8088c8c5834E, symObjAddr: 0x80F8C, symBinAddr: 0x81050, symSize: 0x2B8 }
  - { offsetInCU: 0x37DC9, offset: 0x96D7B, size: 0x8, addend: 0x0, symName: '__ZN93_$LT$gimli..read..line..LineProgramHeader$LT$R$C$Offset$GT$$u20$as$u20$core..clone..Clone$GT$5clone17h60801f4b3da796bbE', symObjAddr: 0x81244, symBinAddr: 0x81308, symSize: 0x34C }
  - { offsetInCU: 0x383A6, offset: 0x97358, size: 0x8, addend: 0x0, symName: '__ZN5gimli4read5dwarf14Dwarf$LT$R$GT$11attr_string17hf0f86e5d87c92665E', symObjAddr: 0x83A00, symBinAddr: 0x83AC4, symSize: 0x22C }
  - { offsetInCU: 0x383AE, offset: 0x97360, size: 0x8, addend: 0x0, symName: '__ZN9addr2line16ResUnit$LT$R$GT$18dwarf_and_unit_dwo17h40af0e0d2e8adbd7E', symObjAddr: 0x83C2C, symBinAddr: 0x83CF0, symSize: 0x30C }
  - { offsetInCU: 0x38CF6, offset: 0x97CA8, size: 0x8, addend: 0x0, symName: '__ZN5gimli4read5dwarf13Unit$LT$R$GT$3new17h642aea1d758faf28E', symObjAddr: 0x8C5C4, symBinAddr: 0x8C5FC, symSize: 0x1A24 }
  - { offsetInCU: 0x38CFE, offset: 0x97CB0, size: 0x8, addend: 0x0, symName: '__ZN4core3ptr181drop_in_place$LT$core..option..Option$LT$gimli..read..line..IncompleteLineProgram$LT$gimli..read..endian_slice..EndianSlice$LT$gimli..endianity..LittleEndian$GT$$C$usize$GT$$GT$$GT$17h61d12f302b1ebec7E', symObjAddr: 0x8DFE8, symBinAddr: 0x8E020, symSize: 0x70 }
  - { offsetInCU: 0x3BF52, offset: 0x9AF04, size: 0x8, addend: 0x0, symName: '__ZN5gimli4read7aranges30ArangeHeader$LT$R$C$Offset$GT$5parse17hddc5fb21d7b5546cE', symObjAddr: 0x8BD3C, symBinAddr: 0x8BD74, symSize: 0x2B8 }
  - { offsetInCU: 0x3BF5A, offset: 0x9AF0C, size: 0x8, addend: 0x0, symName: __ZN4core5slice4sort25insertion_sort_shift_left17h2abe9feb9d21f50cE, symObjAddr: 0x8BFF4, symBinAddr: 0x8C02C, symSize: 0xBC }
  - { offsetInCU: 0x3C75E, offset: 0x9B710, size: 0x8, addend: 0x0, symName: __ZN4core5slice4sort25insertion_sort_shift_left17h2abe9feb9d21f50cE, symObjAddr: 0x8BFF4, symBinAddr: 0x8C02C, symSize: 0xBC }
  - { offsetInCU: 0x3CA20, offset: 0x9B9D2, size: 0x8, addend: 0x0, symName: '__ZN90_$LT$gimli..read..unit..AttributeValue$LT$R$C$Offset$GT$$u20$as$u20$core..clone..Clone$GT$5clone17hd6e3dfc6cf9f7520E', symObjAddr: 0x83998, symBinAddr: 0x83A5C, symSize: 0x68 }
  - { offsetInCU: 0x3CA28, offset: 0x9B9DA, size: 0x8, addend: 0x0, symName: '__ZN5gimli4read5dwarf14Dwarf$LT$R$GT$11attr_string17hf0f86e5d87c92665E', symObjAddr: 0x83A00, symBinAddr: 0x83AC4, symSize: 0x22C }
  - { offsetInCU: 0x3CA72, offset: 0x9BA24, size: 0x8, addend: 0x0, symName: '__ZN5gimli4read4unit22EntriesCursor$LT$R$GT$10next_entry17h8238bb09189b9a89E', symObjAddr: 0x8B3C4, symBinAddr: 0x8B488, symSize: 0x2FC }
  - { offsetInCU: 0x3CA7A, offset: 0x9BA2C, size: 0x8, addend: 0x0, symName: '__ZN5gimli4read4unit43DebuggingInformationEntry$LT$R$C$Offset$GT$4attr17h6578167654cdc5dcE', symObjAddr: 0x8B6C0, symBinAddr: 0x8B784, symSize: 0x170 }
  - { offsetInCU: 0x3D078, offset: 0x9C02A, size: 0x8, addend: 0x0, symName: '__ZN5gimli4read4unit43DebuggingInformationEntry$LT$R$C$Offset$GT$4attr17h6578167654cdc5dcE', symObjAddr: 0x8B6C0, symBinAddr: 0x8B784, symSize: 0x170 }
  - { offsetInCU: 0x3D080, offset: 0x9C032, size: 0x8, addend: 0x0, symName: '__ZN65_$LT$std..sys..unix..fs..Dir$u20$as$u20$core..ops..drop..Drop$GT$4drop17hbf0f3774f7446416E', symObjAddr: 0x8B830, symBinAddr: 0x8B8F4, symSize: 0xA4 }
  - { offsetInCU: 0x3D2F4, offset: 0x9C2A6, size: 0x8, addend: 0x0, symName: '__ZN5gimli4read4unit18Attribute$LT$R$GT$5value17h24915129fc10903fE', symObjAddr: 0x8907C, symBinAddr: 0x89140, symSize: 0x3C0 }
  - { offsetInCU: 0x3D2FC, offset: 0x9C2AE, size: 0x8, addend: 0x0, symName: '__ZN4core3ptr273drop_in_place$LT$alloc..vec..Vec$LT$$LP$gimli..read..UnitOffset$C$addr2line..lazy..LazyCell$LT$core..result..Result$LT$addr2line..function..Function$LT$gimli..read..endian_slice..EndianSlice$LT$gimli..endianity..LittleEndian$GT$$GT$$C$gimli..read..Error$GT$$GT$$RP$$GT$$GT$17h8c31cf9c0921a92bE', symObjAddr: 0x8943C, symBinAddr: 0x89500, symSize: 0x90 }
  - { offsetInCU: 0x3D5DB, offset: 0x9C58D, size: 0x8, addend: 0x0, symName: __ZN5gimli4read4unit15skip_attributes17h7a08e22cfe9a53b9E, symObjAddr: 0x86EB4, symBinAddr: 0x86F78, symSize: 0x528 }
  - { offsetInCU: 0x3D5E3, offset: 0x9C595, size: 0x8, addend: 0x0, symName: '__ZN5gimli4read8rnglists20RngListIter$LT$R$GT$4next17hdd6b1f18aab6ef27E', symObjAddr: 0x873DC, symBinAddr: 0x874A0, symSize: 0xC18 }
  - { offsetInCU: 0x3E18B, offset: 0x9D13D, size: 0x8, addend: 0x0, symName: __ZN5gimli4read4unit15parse_attribute17hf2bf1e54d195ecc2E, symObjAddr: 0x87FF4, symBinAddr: 0x880B8, symSize: 0xF64 }
  - { offsetInCU: 0x3E193, offset: 0x9D145, size: 0x8, addend: 0x0, symName: '__ZN5alloc7raw_vec19RawVec$LT$T$C$A$GT$16reserve_for_push17h878bf804055cf40eE', symObjAddr: 0x88F58, symBinAddr: 0x8901C, symSize: 0xD4 }
  - { offsetInCU: 0x4199C, offset: 0xA094E, size: 0x8, addend: 0x0, symName: '__ZN5gimli4read4unit32AttributeValue$LT$R$C$Offset$GT$8u8_value17h7844393106642b4fE', symObjAddr: 0x8AE54, symBinAddr: 0x8AF18, symSize: 0xA0 }
  - { offsetInCU: 0x419A4, offset: 0xA0956, size: 0x8, addend: 0x0, symName: '__ZN5gimli4read4unit32AttributeValue$LT$R$C$Offset$GT$11udata_value17he250f894c0e2a2aaE', symObjAddr: 0x8AEF4, symBinAddr: 0x8AFB8, symSize: 0x70 }
  - { offsetInCU: 0x419CC, offset: 0xA097E, size: 0x8, addend: 0x0, symName: '__ZN5gimli4read4unit32AttributeValue$LT$R$C$Offset$GT$11udata_value17he250f894c0e2a2aaE', symObjAddr: 0x8AEF4, symBinAddr: 0x8AFB8, symSize: 0x70 }
  - { offsetInCU: 0x419D4, offset: 0xA0986, size: 0x8, addend: 0x0, symName: '__ZN5gimli4read4unit32AttributeValue$LT$R$C$Offset$GT$9u16_value17h7bb7d7ba09917405E', symObjAddr: 0x8AF64, symBinAddr: 0x8B028, symSize: 0xA0 }
  - { offsetInCU: 0x419E5, offset: 0xA0997, size: 0x8, addend: 0x0, symName: '__ZN5gimli4read4unit32AttributeValue$LT$R$C$Offset$GT$9u16_value17h7bb7d7ba09917405E', symObjAddr: 0x8AF64, symBinAddr: 0x8B028, symSize: 0xA0 }
  - { offsetInCU: 0x419ED, offset: 0xA099F, size: 0x8, addend: 0x0, symName: __ZN5gimli4read6reader6Reader12read_address17h19ed7bec3593d516E, symObjAddr: 0x8B004, symBinAddr: 0x8B0C8, symSize: 0x160 }
  - { offsetInCU: 0x41AB6, offset: 0xA0A68, size: 0x8, addend: 0x0, symName: '__ZN5gimli4read4unit33DebugInfoUnitHeadersIter$LT$R$GT$4next17h62a213719d1b978dE', symObjAddr: 0x8C0B0, symBinAddr: 0x8C0E8, symSize: 0x514 }
  - { offsetInCU: 0x41ABE, offset: 0xA0A70, size: 0x8, addend: 0x0, symName: '__ZN5gimli4read5dwarf13Unit$LT$R$GT$3new17h642aea1d758faf28E', symObjAddr: 0x8C5C4, symBinAddr: 0x8C5FC, symSize: 0x1A24 }
  - { offsetInCU: 0x43155, offset: 0xA2107, size: 0x8, addend: 0x0, symName: __ZN5gimli4read6reader6Reader12read_sleb12817hdf0a8a3b19c1ecc6E, symObjAddr: 0x83000, symBinAddr: 0x830C4, symSize: 0x224 }
  - { offsetInCU: 0x4315D, offset: 0xA210F, size: 0x8, addend: 0x0, symName: '__ZN5alloc7raw_vec19RawVec$LT$T$C$A$GT$16reserve_for_push17hb96a4e9f4eb15290E', symObjAddr: 0x83224, symBinAddr: 0x832E8, symSize: 0xC0 }
  - { offsetInCU: 0x4326D, offset: 0xA221F, size: 0x8, addend: 0x0, symName: __ZN5gimli4read6reader6Reader12read_address17h19ed7bec3593d516E, symObjAddr: 0x8B004, symBinAddr: 0x8B0C8, symSize: 0x160 }
  - { offsetInCU: 0x43275, offset: 0xA2227, size: 0x8, addend: 0x0, symName: __ZN5gimli4read6reader6Reader11read_offset17hc6bf9530ffb12ab7E, symObjAddr: 0x8B164, symBinAddr: 0x8B228, symSize: 0xD8 }
  - { offsetInCU: 0x4364E, offset: 0xA2600, size: 0x8, addend: 0x0, symName: __ZN5gimli4read6reader6Reader11read_offset17hc6bf9530ffb12ab7E, symObjAddr: 0x8B164, symBinAddr: 0x8B228, symSize: 0xD8 }
  - { offsetInCU: 0x43656, offset: 0xA2608, size: 0x8, addend: 0x0, symName: __ZN5gimli4read6reader6Reader17read_sized_offset17h16eb7a6d640fe520E, symObjAddr: 0x8B23C, symBinAddr: 0x8B300, symSize: 0x188 }
  - { offsetInCU: 0x43921, offset: 0xA28D3, size: 0x8, addend: 0x0, symName: __ZN5gimli4read6reader6Reader17read_sized_offset17h16eb7a6d640fe520E, symObjAddr: 0x8B23C, symBinAddr: 0x8B300, symSize: 0x188 }
  - { offsetInCU: 0x43929, offset: 0xA28DB, size: 0x8, addend: 0x0, symName: '__ZN5gimli4read4unit22EntriesCursor$LT$R$GT$10next_entry17h8238bb09189b9a89E', symObjAddr: 0x8B3C4, symBinAddr: 0x8B488, symSize: 0x2FC }
  - { offsetInCU: 0x43F9D, offset: 0xA2F4F, size: 0x8, addend: 0x0, symName: '__ZN5gimli4read6abbrev20DebugAbbrev$LT$R$GT$13abbreviations17h563788f05fb4791eE', symObjAddr: 0x8F82C, symBinAddr: 0x8F864, symSize: 0x7BC }
  - { offsetInCU: 0x43FA5, offset: 0xA2F57, size: 0x8, addend: 0x0, symName: '__ZN4core3ptr84drop_in_place$LT$alloc..sync..ArcInner$LT$gimli..read..abbrev..Abbreviations$GT$$GT$17hb449902ce384c7d8E', symObjAddr: 0x8FFE8, symBinAddr: 0x90020, symSize: 0x100 }
  - { offsetInCU: 0x45644, offset: 0xA45F6, size: 0x8, addend: 0x0, symName: '__ZN5gimli4read8rnglists20RngListIter$LT$R$GT$4next17hdd6b1f18aab6ef27E', symObjAddr: 0x873DC, symBinAddr: 0x874A0, symSize: 0xC18 }
  - { offsetInCU: 0x4564C, offset: 0xA45FE, size: 0x8, addend: 0x0, symName: __ZN5gimli4read4unit15parse_attribute17hf2bf1e54d195ecc2E, symObjAddr: 0x87FF4, symBinAddr: 0x880B8, symSize: 0xF64 }
  - { offsetInCU: 0x46E85, offset: 0xA5E37, size: 0x8, addend: 0x0, symName: '__ZN5gimli4read5index18UnitIndex$LT$R$GT$5parse17h0bafee5271ca36f2E', symObjAddr: 0x8EB14, symBinAddr: 0x8EB4C, symSize: 0x8DC }
  - { offsetInCU: 0x46E8D, offset: 0xA5E3F, size: 0x8, addend: 0x0, symName: '__ZN4core3ptr123drop_in_place$LT$addr2line..Context$LT$gimli..read..endian_slice..EndianSlice$LT$gimli..endianity..LittleEndian$GT$$GT$$GT$17h03c31b4a005ff70bE', symObjAddr: 0x8F3F0, symBinAddr: 0x8F428, symSize: 0x108 }
  - { offsetInCU: 0x474CA, offset: 0xA647C, size: 0x8, addend: 0x0, symName: '__ZN93_$LT$gimli..read..line..LineProgramHeader$LT$R$C$Offset$GT$$u20$as$u20$core..clone..Clone$GT$5clone17h60801f4b3da796bbE', symObjAddr: 0x81244, symBinAddr: 0x81308, symSize: 0x34C }
  - { offsetInCU: 0x474D2, offset: 0xA6484, size: 0x8, addend: 0x0, symName: __ZN9addr2line5Lines5parse17h639c4a828ffa0cb6E, symObjAddr: 0x81590, symBinAddr: 0x81654, symSize: 0x19C4 }
  - { offsetInCU: 0x47CD9, offset: 0xA6C8B, size: 0x8, addend: 0x0, symName: __ZN5gimli4read4line15FileEntryFormat5parse17h52b613ac9d1a0cbcE, symObjAddr: 0x900E8, symBinAddr: 0x90120, symSize: 0x2A0 }
  - { offsetInCU: 0x47CE1, offset: 0xA6C93, size: 0x8, addend: 0x0, symName: __ZN5gimli4read4line15parse_attribute17hc7a2eee94b3746cfE, symObjAddr: 0x90388, symBinAddr: 0x903C0, symSize: 0x878 }
  - { offsetInCU: 0x48595, offset: 0xA7547, size: 0x8, addend: 0x0, symName: __ZN5gimli4read4line15parse_attribute17hc7a2eee94b3746cfE, symObjAddr: 0x90388, symBinAddr: 0x903C0, symSize: 0x878 }
  - { offsetInCU: 0x4859D, offset: 0xA754F, size: 0x8, addend: 0x0, symName: '__ZN4core3ptr79drop_in_place$LT$alloc..sync..Arc$LT$gimli..read..abbrev..Abbreviations$GT$$GT$17hef5c35d51298a0b7E', symObjAddr: 0x90C00, symBinAddr: 0x90C38, symSize: 0x28 }
  - { offsetInCU: 0x4A85E, offset: 0xA9810, size: 0x8, addend: 0x0, symName: '__ZN9addr2line4lazy17LazyCell$LT$T$GT$11borrow_with17h4e735436b800e79eE', symObjAddr: 0x8E2A4, symBinAddr: 0x8E2DC, symSize: 0x10C }
  - { offsetInCU: 0x4A866, offset: 0xA9818, size: 0x8, addend: 0x0, symName: '__ZN4core3ptr119drop_in_place$LT$addr2line..lazy..LazyCell$LT$core..result..Result$LT$addr2line..Lines$C$gimli..read..Error$GT$$GT$$GT$17h290a4009db5ded8eE', symObjAddr: 0x8E3B0, symBinAddr: 0x8E3E8, symSize: 0xB4 }
  - { offsetInCU: 0x4A8BD, offset: 0xA986F, size: 0x8, addend: 0x0, symName: '__ZN4core3ptr119drop_in_place$LT$addr2line..lazy..LazyCell$LT$core..result..Result$LT$addr2line..Lines$C$gimli..read..Error$GT$$GT$$GT$17h290a4009db5ded8eE', symObjAddr: 0x8E3B0, symBinAddr: 0x8E3E8, symSize: 0xB4 }
  - { offsetInCU: 0x4AB06, offset: 0xA9AB8, size: 0x8, addend: 0x0, symName: '__ZN4core3ptr119drop_in_place$LT$addr2line..lazy..LazyCell$LT$core..result..Result$LT$addr2line..Lines$C$gimli..read..Error$GT$$GT$$GT$17h290a4009db5ded8eE', symObjAddr: 0x8E3B0, symBinAddr: 0x8E3E8, symSize: 0xB4 }
  - { offsetInCU: 0x4AB20, offset: 0xA9AD2, size: 0x8, addend: 0x0, symName: '__ZN4core3ptr119drop_in_place$LT$addr2line..lazy..LazyCell$LT$core..result..Result$LT$addr2line..Lines$C$gimli..read..Error$GT$$GT$$GT$17h290a4009db5ded8eE', symObjAddr: 0x8E3B0, symBinAddr: 0x8E3E8, symSize: 0xB4 }
  - { offsetInCU: 0x4AB3A, offset: 0xA9AEC, size: 0x8, addend: 0x0, symName: '__ZN4core3ptr119drop_in_place$LT$addr2line..lazy..LazyCell$LT$core..result..Result$LT$addr2line..Lines$C$gimli..read..Error$GT$$GT$$GT$17h290a4009db5ded8eE', symObjAddr: 0x8E3B0, symBinAddr: 0x8E3E8, symSize: 0xB4 }
  - { offsetInCU: 0x4AB53, offset: 0xA9B05, size: 0x8, addend: 0x0, symName: '__ZN4core3ptr119drop_in_place$LT$addr2line..lazy..LazyCell$LT$core..result..Result$LT$addr2line..Lines$C$gimli..read..Error$GT$$GT$$GT$17h290a4009db5ded8eE', symObjAddr: 0x8E3B0, symBinAddr: 0x8E3E8, symSize: 0xB4 }
  - { offsetInCU: 0x4AB6C, offset: 0xA9B1E, size: 0x8, addend: 0x0, symName: '__ZN4core3ptr119drop_in_place$LT$addr2line..lazy..LazyCell$LT$core..result..Result$LT$addr2line..Lines$C$gimli..read..Error$GT$$GT$$GT$17h290a4009db5ded8eE', symObjAddr: 0x8E3B0, symBinAddr: 0x8E3E8, symSize: 0xB4 }
  - { offsetInCU: 0x4ABEB, offset: 0xA9B9D, size: 0x8, addend: 0x0, symName: '__ZN9addr2line16ResUnit$LT$R$GT$18dwarf_and_unit_dwo17h40af0e0d2e8adbd7E', symObjAddr: 0x83C2C, symBinAddr: 0x83CF0, symSize: 0x30C }
  - { offsetInCU: 0x4ABF3, offset: 0xA9BA5, size: 0x8, addend: 0x0, symName: '__ZN9addr2line16ResUnit$LT$R$GT$25find_function_or_location28_$u7b$$u7b$closure$u7d$$u7d$17h32c460b3ab44fcb6E', symObjAddr: 0x83F38, symBinAddr: 0x83FFC, symSize: 0x253C }
  - { offsetInCU: 0x4AFB8, offset: 0xA9F6A, size: 0x8, addend: 0x0, symName: '__ZN9addr2line30LoopingLookup$LT$T$C$L$C$F$GT$10new_lookup17hbc980974765f043fE', symObjAddr: 0x86474, symBinAddr: 0x86538, symSize: 0x408 }
  - { offsetInCU: 0x4AFC0, offset: 0xA9F72, size: 0x8, addend: 0x0, symName: '__ZN5alloc4sync16Arc$LT$T$C$A$GT$9drop_slow17hcf0586bfe44327d0E', symObjAddr: 0x8687C, symBinAddr: 0x86940, symSize: 0xC0 }
  - { offsetInCU: 0x4B3D5, offset: 0xAA387, size: 0x8, addend: 0x0, symName: '__ZN9addr2line16ResUnit$LT$R$GT$25find_function_or_location28_$u7b$$u7b$closure$u7d$$u7d$17h32c460b3ab44fcb6E', symObjAddr: 0x83F38, symBinAddr: 0x83FFC, symSize: 0x253C }
  - { offsetInCU: 0x4B3DD, offset: 0xAA38F, size: 0x8, addend: 0x0, symName: '__ZN9addr2line30LoopingLookup$LT$T$C$L$C$F$GT$10new_lookup17hbc980974765f043fE', symObjAddr: 0x86474, symBinAddr: 0x86538, symSize: 0x408 }
  - { offsetInCU: 0x4F9A4, offset: 0xAE956, size: 0x8, addend: 0x0, symName: '__ZN9addr2line18FrameIter$LT$R$GT$4next17hf0d64a520f7bb232E', symObjAddr: 0x8077C, symBinAddr: 0x80840, symSize: 0x2AC }
  - { offsetInCU: 0x4F9AC, offset: 0xAE95E, size: 0x8, addend: 0x0, symName: '__ZN4core3ptr125drop_in_place$LT$addr2line..FrameIter$LT$gimli..read..endian_slice..EndianSlice$LT$gimli..endianity..LittleEndian$GT$$GT$$GT$17h15a889fcaed34f89E', symObjAddr: 0x80A28, symBinAddr: 0x80AEC, symSize: 0x24 }
  - { offsetInCU: 0x4FD90, offset: 0xAED42, size: 0x8, addend: 0x0, symName: '__ZN4core3ptr125drop_in_place$LT$addr2line..FrameIter$LT$gimli..read..endian_slice..EndianSlice$LT$gimli..endianity..LittleEndian$GT$$GT$$GT$17h15a889fcaed34f89E', symObjAddr: 0x80A28, symBinAddr: 0x80AEC, symSize: 0x24 }
  - { offsetInCU: 0x4FF53, offset: 0xAEF05, size: 0x8, addend: 0x0, symName: __ZN9addr2line5Lines5parse17h639c4a828ffa0cb6E, symObjAddr: 0x81590, symBinAddr: 0x81654, symSize: 0x19C4 }
  - { offsetInCU: 0x4FF5B, offset: 0xAEF0D, size: 0x8, addend: 0x0, symName: '__ZN4core3ptr86drop_in_place$LT$core..result..Result$LT$addr2line..Lines$C$gimli..read..Error$GT$$GT$17haea45a42a3f574f1E', symObjAddr: 0x82F54, symBinAddr: 0x83018, symSize: 0xAC }
  - { offsetInCU: 0x537F2, offset: 0xB27A4, size: 0x8, addend: 0x0, symName: __ZN9addr2line11render_file17h406a1e16b38ee553E, symObjAddr: 0x8362C, symBinAddr: 0x836F0, symSize: 0x29C }
  - { offsetInCU: 0x537FA, offset: 0xB27AC, size: 0x8, addend: 0x0, symName: '__ZN4core3ptr67drop_in_place$LT$alloc..vec..Vec$LT$addr2line..LineSequence$GT$$GT$17h813a6a89a5c2ef1eE', symObjAddr: 0x838C8, symBinAddr: 0x8398C, symSize: 0x74 }
  - { offsetInCU: 0x53EE9, offset: 0xB2E9B, size: 0x8, addend: 0x0, symName: '__ZN9addr2line8function17Function$LT$R$GT$14parse_children17hf0c934c329f1ef83E', symObjAddr: 0x89568, symBinAddr: 0x8962C, symSize: 0x10E8 }
  - { offsetInCU: 0x53EF1, offset: 0xB2EA3, size: 0x8, addend: 0x0, symName: __ZN4core5slice4sort25insertion_sort_shift_left17h96d6fec9fd2b73e8E, symObjAddr: 0x8A650, symBinAddr: 0x8A714, symSize: 0xF0 }
  - { offsetInCU: 0x55758, offset: 0xB470A, size: 0x8, addend: 0x0, symName: __ZN9addr2line8function9name_attr17h01edf63ca0115c37E, symObjAddr: 0x8A740, symBinAddr: 0x8A804, symSize: 0x288 }
  - { offsetInCU: 0x55760, offset: 0xB4712, size: 0x8, addend: 0x0, symName: __ZN9addr2line8function10name_entry17h3e044e2736a5690fE, symObjAddr: 0x8A9C8, symBinAddr: 0x8AA8C, symSize: 0x3BC }
  - { offsetInCU: 0x55ACF, offset: 0xB4A81, size: 0x8, addend: 0x0, symName: __ZN9addr2line8function10name_entry17h3e044e2736a5690fE, symObjAddr: 0x8A9C8, symBinAddr: 0x8AA8C, symSize: 0x3BC }
  - { offsetInCU: 0x55AD7, offset: 0xB4A89, size: 0x8, addend: 0x0, symName: '__ZN5alloc7raw_vec19RawVec$LT$T$C$A$GT$16reserve_for_push17h36e2f4f8716c9db5E', symObjAddr: 0x8AD84, symBinAddr: 0x8AE48, symSize: 0xD0 }
  - { offsetInCU: 0x1F, offset: 0xB4F7F, size: 0x8, addend: 0x0, symName: __ZN4core3ops8function6FnOnce9call_once17haaaea6a94c8fdf23E, symObjAddr: 0x2B638, symBinAddr: 0x2EE70, symSize: 0x8 }
  - { offsetInCU: 0x27, offset: 0xB4F87, size: 0x8, addend: 0x0, symName: __ZN5gimli4read6abbrev13Abbreviations6insert17h56c6660c7dffc9e2E, symObjAddr: 0x33444, symBinAddr: 0x36800, symSize: 0xD18 }
  - { offsetInCU: 0x364, offset: 0xB52C4, size: 0x8, addend: 0x0, symName: __ZN4core5slice6memchr14memchr_aligned17h6c46650bc7e890e7E, symObjAddr: 0x2F210, symBinAddr: 0x32608, symSize: 0xEC }
  - { offsetInCU: 0x36C, offset: 0xB52CC, size: 0x8, addend: 0x0, symName: __ZN4core3str6traits23str_index_overflow_fail17he888ba6998020dc8E, symObjAddr: 0x2F2FC, symBinAddr: 0x1D1414, symSize: 0x3C }
  - { offsetInCU: 0x381, offset: 0xB52E1, size: 0x8, addend: 0x0, symName: __ZN4core5slice6memchr14memchr_aligned17h6c46650bc7e890e7E, symObjAddr: 0x2F210, symBinAddr: 0x32608, symSize: 0xEC }
  - { offsetInCU: 0x39A, offset: 0xB52FA, size: 0x8, addend: 0x0, symName: __ZN4core5slice6memchr14memchr_aligned17h6c46650bc7e890e7E, symObjAddr: 0x2F210, symBinAddr: 0x32608, symSize: 0xEC }
  - { offsetInCU: 0x6FB, offset: 0xB565B, size: 0x8, addend: 0x0, symName: __ZN4core5slice5index26slice_start_index_len_fail17hc4d43eb0c7c5909cE, symObjAddr: 0x2B698, symBinAddr: 0x1D1008, symSize: 0x58 }
  - { offsetInCU: 0x703, offset: 0xB5663, size: 0x8, addend: 0x0, symName: __ZN4core9panicking18panic_bounds_check17h436c1dc2b60e8a6eE, symObjAddr: 0x2B6F0, symBinAddr: 0x1D1060, symSize: 0x58 }
  - { offsetInCU: 0x728, offset: 0xB5688, size: 0x8, addend: 0x0, symName: __ZN4core9panicking18panic_bounds_check17h436c1dc2b60e8a6eE, symObjAddr: 0x2B6F0, symBinAddr: 0x1D1060, symSize: 0x58 }
  - { offsetInCU: 0x745, offset: 0xB56A5, size: 0x8, addend: 0x0, symName: __ZN4core5slice5index24slice_end_index_len_fail17h47551c0fa274bd98E, symObjAddr: 0x2BF14, symBinAddr: 0x1D10B8, symSize: 0x58 }
  - { offsetInCU: 0x74D, offset: 0xB56AD, size: 0x8, addend: 0x0, symName: __ZN4core3fmt9Formatter3pad17h8977361ce136864eE, symObjAddr: 0x2BF6C, symBinAddr: 0x2F668, symSize: 0x3D4 }
  - { offsetInCU: 0x772, offset: 0xB56D2, size: 0x8, addend: 0x0, symName: __ZN4core3fmt9Formatter3pad17h8977361ce136864eE, symObjAddr: 0x2BF6C, symBinAddr: 0x2F668, symSize: 0x3D4 }
  - { offsetInCU: 0xBC2, offset: 0xB5B22, size: 0x8, addend: 0x0, symName: __ZN4core5slice5index22slice_index_order_fail17h20c07d4552cb1188E, symObjAddr: 0x2D298, symBinAddr: 0x1D1270, symSize: 0x58 }
  - { offsetInCU: 0xBCA, offset: 0xB5B2A, size: 0x8, addend: 0x0, symName: '__ZN60_$LT$core..cell..BorrowError$u20$as$u20$core..fmt..Debug$GT$3fmt17hbcdf6fe1c91ed193E', symObjAddr: 0x2D2F0, symBinAddr: 0x30834, symSize: 0x18 }
  - { offsetInCU: 0xBEF, offset: 0xB5B4F, size: 0x8, addend: 0x0, symName: '__ZN60_$LT$core..cell..BorrowError$u20$as$u20$core..fmt..Debug$GT$3fmt17hbcdf6fe1c91ed193E', symObjAddr: 0x2D2F0, symBinAddr: 0x30834, symSize: 0x18 }
  - { offsetInCU: 0xF85, offset: 0xB5EE5, size: 0x8, addend: 0x0, symName: __ZN4core3num6bignum8Big32x4010mul_digits17h53afe0eaf7f435f6E, symObjAddr: 0x2CA7C, symBinAddr: 0x30018, symSize: 0x1F8 }
  - { offsetInCU: 0xF8D, offset: 0xB5EED, size: 0x8, addend: 0x0, symName: __ZN4core3num6bignum8Big32x408mul_pow217h7fbbd3392c592572E, symObjAddr: 0x2CC74, symBinAddr: 0x30210, symSize: 0x364 }
  - { offsetInCU: 0x127E, offset: 0xB61DE, size: 0x8, addend: 0x0, symName: __ZN4core3num6bignum8Big32x408mul_pow217h7fbbd3392c592572E, symObjAddr: 0x2CC74, symBinAddr: 0x30210, symSize: 0x364 }
  - { offsetInCU: 0x1296, offset: 0xB61F6, size: 0x8, addend: 0x0, symName: __ZN4core3num6bignum8Big32x408mul_pow217h7fbbd3392c592572E, symObjAddr: 0x2CC74, symBinAddr: 0x30210, symSize: 0x364 }
  - { offsetInCU: 0x12AF, offset: 0xB620F, size: 0x8, addend: 0x0, symName: __ZN4core3num6bignum8Big32x408mul_pow217h7fbbd3392c592572E, symObjAddr: 0x2CC74, symBinAddr: 0x30210, symSize: 0x364 }
  - { offsetInCU: 0x12C9, offset: 0xB6229, size: 0x8, addend: 0x0, symName: __ZN4core3num6bignum8Big32x408mul_pow217h7fbbd3392c592572E, symObjAddr: 0x2CC74, symBinAddr: 0x30210, symSize: 0x364 }
  - { offsetInCU: 0x12E2, offset: 0xB6242, size: 0x8, addend: 0x0, symName: __ZN4core3num6bignum8Big32x408mul_pow217h7fbbd3392c592572E, symObjAddr: 0x2CC74, symBinAddr: 0x30210, symSize: 0x364 }
  - { offsetInCU: 0x12F5, offset: 0xB6255, size: 0x8, addend: 0x0, symName: __ZN4core3num6bignum8Big32x408mul_pow217h7fbbd3392c592572E, symObjAddr: 0x2CC74, symBinAddr: 0x30210, symSize: 0x364 }
  - { offsetInCU: 0x12FD, offset: 0xB625D, size: 0x8, addend: 0x0, symName: __ZN4core3num7flt2dec8strategy5grisu16format_exact_opt14possibly_round17hac2d54b03e3a6310E, symObjAddr: 0x2CFD8, symBinAddr: 0x30574, symSize: 0x18C }
  - { offsetInCU: 0x15D8, offset: 0xB6538, size: 0x8, addend: 0x0, symName: __ZN4core3num7flt2dec8strategy6dragon9mul_pow1017h8bb5a20b72fff25bE, symObjAddr: 0x2C908, symBinAddr: 0x2FEA4, symSize: 0x174 }
  - { offsetInCU: 0x15E0, offset: 0xB6540, size: 0x8, addend: 0x0, symName: __ZN4core3num6bignum8Big32x4010mul_digits17h53afe0eaf7f435f6E, symObjAddr: 0x2CA7C, symBinAddr: 0x30018, symSize: 0x1F8 }
  - { offsetInCU: 0x17A8, offset: 0xB6708, size: 0x8, addend: 0x0, symName: __ZN4core3num6bignum8Big32x4010mul_digits17h53afe0eaf7f435f6E, symObjAddr: 0x2CA7C, symBinAddr: 0x30018, symSize: 0x1F8 }
  - { offsetInCU: 0x17C0, offset: 0xB6720, size: 0x8, addend: 0x0, symName: __ZN4core3num6bignum8Big32x4010mul_digits17h53afe0eaf7f435f6E, symObjAddr: 0x2CA7C, symBinAddr: 0x30018, symSize: 0x1F8 }
  - { offsetInCU: 0x17D9, offset: 0xB6739, size: 0x8, addend: 0x0, symName: __ZN4core3num6bignum8Big32x4010mul_digits17h53afe0eaf7f435f6E, symObjAddr: 0x2CA7C, symBinAddr: 0x30018, symSize: 0x1F8 }
  - { offsetInCU: 0x17F3, offset: 0xB6753, size: 0x8, addend: 0x0, symName: __ZN4core3num6bignum8Big32x4010mul_digits17h53afe0eaf7f435f6E, symObjAddr: 0x2CA7C, symBinAddr: 0x30018, symSize: 0x1F8 }
  - { offsetInCU: 0x180C, offset: 0xB676C, size: 0x8, addend: 0x0, symName: __ZN4core3num6bignum8Big32x4010mul_digits17h53afe0eaf7f435f6E, symObjAddr: 0x2CA7C, symBinAddr: 0x30018, symSize: 0x1F8 }
  - { offsetInCU: 0x1868, offset: 0xB67C8, size: 0x8, addend: 0x0, symName: __ZN4core3num7flt2dec8strategy5grisu16format_exact_opt14possibly_round17hac2d54b03e3a6310E, symObjAddr: 0x2CFD8, symBinAddr: 0x30574, symSize: 0x18C }
  - { offsetInCU: 0x1870, offset: 0xB67D0, size: 0x8, addend: 0x0, symName: __ZN4core3num7flt2dec17digits_to_dec_str17h41715a1f6d3d0243E, symObjAddr: 0x2D164, symBinAddr: 0x30700, symSize: 0x134 }
  - { offsetInCU: 0x1A5F, offset: 0xB69BF, size: 0x8, addend: 0x0, symName: __ZN4core3num7flt2dec17digits_to_dec_str17h41715a1f6d3d0243E, symObjAddr: 0x2D164, symBinAddr: 0x30700, symSize: 0x134 }
  - { offsetInCU: 0x1A67, offset: 0xB69C7, size: 0x8, addend: 0x0, symName: __ZN4core5slice5index22slice_index_order_fail17h20c07d4552cb1188E, symObjAddr: 0x2D298, symBinAddr: 0x1D1270, symSize: 0x58 }
  - { offsetInCU: 0x1B7B, offset: 0xB6ADB, size: 0x8, addend: 0x0, symName: '__ZN68_$LT$core..num..error..ParseIntError$u20$as$u20$core..fmt..Debug$GT$3fmt17haa10bcc35df6ce4dE', symObjAddr: 0x2FFD0, symBinAddr: 0x3338C, symSize: 0xCC }
  - { offsetInCU: 0x1B83, offset: 0xB6AE3, size: 0x8, addend: 0x0, symName: '__ZN42_$LT$$RF$T$u20$as$u20$core..fmt..Debug$GT$3fmt17h10ff6f49e4d7b9e1E', symObjAddr: 0x3009C, symBinAddr: 0x33458, symSize: 0x34 }
  - { offsetInCU: 0x1CCA, offset: 0xB6C2A, size: 0x8, addend: 0x0, symName: '__ZN4core3num60_$LT$impl$u20$core..str..traits..FromStr$u20$for$u20$u64$GT$8from_str17h2129ef1c2e62cce9E', symObjAddr: 0x300D0, symBinAddr: 0x3348C, symSize: 0xE4 }
  - { offsetInCU: 0x1CD2, offset: 0xB6C32, size: 0x8, addend: 0x0, symName: '__ZN67_$LT$core..array..TryFromSliceError$u20$as$u20$core..fmt..Debug$GT$3fmt17h4a9facc9d38ac3fcE', symObjAddr: 0x301B4, symBinAddr: 0x33570, symSize: 0xE0 }
  - { offsetInCU: 0x2157, offset: 0xB70B7, size: 0x8, addend: 0x0, symName: __ZN4core7unicode12unicode_data15grapheme_extend6lookup17h88fb3446aec8be35E, symObjAddr: 0x2EECC, symBinAddr: 0x322C4, symSize: 0x130 }
  - { offsetInCU: 0x215F, offset: 0xB70BF, size: 0x8, addend: 0x0, symName: __ZN4core7unicode9printable5check17h1a4ca1c5c8e5f03cE, symObjAddr: 0x2EFFC, symBinAddr: 0x323F4, symSize: 0x124 }
  - { offsetInCU: 0x234D, offset: 0xB72AD, size: 0x8, addend: 0x0, symName: __ZN4core7unicode12unicode_data14case_ignorable6lookup17ha9120fe0b7052482E, symObjAddr: 0x331E4, symBinAddr: 0x365A0, symSize: 0x130 }
  - { offsetInCU: 0x2355, offset: 0xB72B5, size: 0x8, addend: 0x0, symName: __ZN4core7unicode12unicode_data5cased6lookup17h7adf3d268556094aE, symObjAddr: 0x33314, symBinAddr: 0x366D0, symSize: 0x130 }
  - { offsetInCU: 0x2541, offset: 0xB74A1, size: 0x8, addend: 0x0, symName: __ZN4core7unicode12unicode_data5cased6lookup17h7adf3d268556094aE, symObjAddr: 0x33314, symBinAddr: 0x366D0, symSize: 0x130 }
  - { offsetInCU: 0x2549, offset: 0xB74A9, size: 0x8, addend: 0x0, symName: __ZN5gimli4read6abbrev13Abbreviations6insert17h56c6660c7dffc9e2E, symObjAddr: 0x33444, symBinAddr: 0x36800, symSize: 0xD18 }
  - { offsetInCU: 0x275C, offset: 0xB76BC, size: 0x8, addend: 0x0, symName: __ZN4core7unicode9printable5check17h1a4ca1c5c8e5f03cE, symObjAddr: 0x2EFFC, symBinAddr: 0x323F4, symSize: 0x124 }
  - { offsetInCU: 0x2764, offset: 0xB76C4, size: 0x8, addend: 0x0, symName: '__ZN43_$LT$char$u20$as$u20$core..fmt..Display$GT$3fmt17h10c0611bad32c8afE', symObjAddr: 0x2F120, symBinAddr: 0x32518, symSize: 0xF0 }
  - { offsetInCU: 0x29B9, offset: 0xB7919, size: 0x8, addend: 0x0, symName: '__ZN43_$LT$char$u20$as$u20$core..fmt..Display$GT$3fmt17h10c0611bad32c8afE', symObjAddr: 0x2F120, symBinAddr: 0x32518, symSize: 0xF0 }
  - { offsetInCU: 0x2C4F, offset: 0xB7BAF, size: 0x8, addend: 0x0, symName: __ZN4core6result13unwrap_failed17ha5278aabaa678340E, symObjAddr: 0x2D5A4, symBinAddr: 0x1D12C8, symSize: 0x64 }
  - { offsetInCU: 0x2C57, offset: 0xB7BB7, size: 0x8, addend: 0x0, symName: '__ZN53_$LT$core..fmt..Error$u20$as$u20$core..fmt..Debug$GT$3fmt17hee9a5a15a22f6c2eE', symObjAddr: 0x2D608, symBinAddr: 0x30AE8, symSize: 0x18 }
  - { offsetInCU: 0x2D25, offset: 0xB7C85, size: 0x8, addend: 0x0, symName: '__ZN4core4char7methods22_$LT$impl$u20$char$GT$16escape_debug_ext17h9170ffbb2058bcf3E', symObjAddr: 0x2E634, symBinAddr: 0x31A38, symSize: 0x2E4 }
  - { offsetInCU: 0x2D2D, offset: 0xB7C8D, size: 0x8, addend: 0x0, symName: __ZN4core3str16slice_error_fail17h9061b1a7713a4c0fE, symObjAddr: 0x2E918, symBinAddr: 0x1D1408, symSize: 0xC }
  - { offsetInCU: 0x2E47, offset: 0xB7DA7, size: 0x8, addend: 0x0, symName: __ZN4core3str16slice_error_fail17h9061b1a7713a4c0fE, symObjAddr: 0x2E918, symBinAddr: 0x1D1408, symSize: 0xC }
  - { offsetInCU: 0x3049, offset: 0xB7FA9, size: 0x8, addend: 0x0, symName: __ZN4core6option13expect_failed17ha213c95af5bd1e64E, symObjAddr: 0x2D760, symBinAddr: 0x1D132C, symSize: 0x50 }
  - { offsetInCU: 0x3051, offset: 0xB7FB1, size: 0x8, addend: 0x0, symName: '__ZN73_$LT$core..panic..panic_info..PanicInfo$u20$as$u20$core..fmt..Display$GT$3fmt17hf2b5fb1da750406fE', symObjAddr: 0x2D7B0, symBinAddr: 0x30C40, symSize: 0x16C }
  - { offsetInCU: 0x3077, offset: 0xB7FD7, size: 0x8, addend: 0x0, symName: '__ZN73_$LT$core..panic..panic_info..PanicInfo$u20$as$u20$core..fmt..Display$GT$3fmt17hf2b5fb1da750406fE', symObjAddr: 0x2D7B0, symBinAddr: 0x30C40, symSize: 0x16C }
  - { offsetInCU: 0x3091, offset: 0xB7FF1, size: 0x8, addend: 0x0, symName: '__ZN73_$LT$core..panic..panic_info..PanicInfo$u20$as$u20$core..fmt..Display$GT$3fmt17hf2b5fb1da750406fE', symObjAddr: 0x2D7B0, symBinAddr: 0x30C40, symSize: 0x16C }
  - { offsetInCU: 0x3134, offset: 0xB8094, size: 0x8, addend: 0x0, symName: __ZN4core3fmt9Formatter12pad_integral17h386392f894347045E, symObjAddr: 0x2B8E8, symBinAddr: 0x2F03C, symSize: 0x290 }
  - { offsetInCU: 0x313C, offset: 0xB809C, size: 0x8, addend: 0x0, symName: __ZN4core3str5count14do_count_chars17h4e5d68ca55d16cc6E, symObjAddr: 0x2BB78, symBinAddr: 0x2F2CC, symSize: 0x320 }
  - { offsetInCU: 0x338A, offset: 0xB82EA, size: 0x8, addend: 0x0, symName: __ZN4core3str5count14do_count_chars17h4e5d68ca55d16cc6E, symObjAddr: 0x2BB78, symBinAddr: 0x2F2CC, symSize: 0x320 }
  - { offsetInCU: 0x34BF, offset: 0xB841F, size: 0x8, addend: 0x0, symName: __ZN4core3fmt9Formatter3pad17h8977361ce136864eE, symObjAddr: 0x2BF6C, symBinAddr: 0x2F668, symSize: 0x3D4 }
  - { offsetInCU: 0x34C7, offset: 0xB8427, size: 0x8, addend: 0x0, symName: __ZN4core9panicking5panic17h9b4179dbc457f51dE, symObjAddr: 0x2C340, symBinAddr: 0x1D1110, symSize: 0x38 }
  - { offsetInCU: 0x39EF, offset: 0xB894F, size: 0x8, addend: 0x0, symName: __ZN4core3fmt9Formatter19pad_formatted_parts17ha71bc02e23b5ea7eE, symObjAddr: 0x30294, symBinAddr: 0x33650, symSize: 0x220 }
  - { offsetInCU: 0x39F7, offset: 0xB8957, size: 0x8, addend: 0x0, symName: __ZN4core3fmt9Formatter21write_formatted_parts17h1aeaaa6691abb0feE, symObjAddr: 0x304B4, symBinAddr: 0x33870, symSize: 0x208 }
  - { offsetInCU: 0x3BA0, offset: 0xB8B00, size: 0x8, addend: 0x0, symName: __ZN4core3fmt9Formatter21write_formatted_parts17h1aeaaa6691abb0feE, symObjAddr: 0x304B4, symBinAddr: 0x33870, symSize: 0x208 }
  - { offsetInCU: 0x3BA8, offset: 0xB8B08, size: 0x8, addend: 0x0, symName: __ZN4core3fmt5float29float_to_decimal_common_exact17h40810a864802de69E, symObjAddr: 0x306BC, symBinAddr: 0x33A78, symSize: 0x11E4 }
  - { offsetInCU: 0x3CCD, offset: 0xB8C2D, size: 0x8, addend: 0x0, symName: __ZN4core3fmt8builders10DebugTuple5field17h45a317b8f59d2652E, symObjAddr: 0x2E02C, symBinAddr: 0x31430, symSize: 0x140 }
  - { offsetInCU: 0x3CD5, offset: 0xB8C35, size: 0x8, addend: 0x0, symName: __ZN4core3fmt8builders8DebugSet5entry17hf9c0b8b2db113a87E, symObjAddr: 0x2E16C, symBinAddr: 0x31570, symSize: 0x134 }
  - { offsetInCU: 0x3D08, offset: 0xB8C68, size: 0x8, addend: 0x0, symName: __ZN4core3fmt8builders8DebugSet5entry17hf9c0b8b2db113a87E, symObjAddr: 0x2E16C, symBinAddr: 0x31570, symSize: 0x134 }
  - { offsetInCU: 0x3DF6, offset: 0xB8D56, size: 0x8, addend: 0x0, symName: __ZN4core3fmt8builders8DebugSet5entry17hf9c0b8b2db113a87E, symObjAddr: 0x2E16C, symBinAddr: 0x31570, symSize: 0x134 }
  - { offsetInCU: 0x3EAF, offset: 0xB8E0F, size: 0x8, addend: 0x0, symName: __ZN4core3fmt8builders11DebugStruct5field17hc116f97bf66a6c84E, symObjAddr: 0x2DC80, symBinAddr: 0x31084, symSize: 0x1AC }
  - { offsetInCU: 0x3EB7, offset: 0xB8E17, size: 0x8, addend: 0x0, symName: __ZN4core3fmt5Write10write_char17h63220d95f8f330e9E, symObjAddr: 0x2DE2C, symBinAddr: 0x31230, symSize: 0xC8 }
  - { offsetInCU: 0x4028, offset: 0xB8F88, size: 0x8, addend: 0x0, symName: __ZN4core3fmt5Write10write_char17h63220d95f8f330e9E, symObjAddr: 0x2DE2C, symBinAddr: 0x31230, symSize: 0xC8 }
  - { offsetInCU: 0x4070, offset: 0xB8FD0, size: 0x8, addend: 0x0, symName: '__ZN68_$LT$core..fmt..builders..PadAdapter$u20$as$u20$core..fmt..Write$GT$9write_str17hbb5969dfc7f9bde8E', symObjAddr: 0x2DA44, symBinAddr: 0x30E48, symSize: 0x23C }
  - { offsetInCU: 0x4078, offset: 0xB8FD8, size: 0x8, addend: 0x0, symName: __ZN4core3fmt8builders11DebugStruct5field17hc116f97bf66a6c84E, symObjAddr: 0x2DC80, symBinAddr: 0x31084, symSize: 0x1AC }
  - { offsetInCU: 0x435F, offset: 0xB92BF, size: 0x8, addend: 0x0, symName: __ZN4core3fmt8builders8DebugSet5entry17hf9c0b8b2db113a87E, symObjAddr: 0x2E16C, symBinAddr: 0x31570, symSize: 0x134 }
  - { offsetInCU: 0x4367, offset: 0xB92C7, size: 0x8, addend: 0x0, symName: '__ZN43_$LT$bool$u20$as$u20$core..fmt..Display$GT$3fmt17h6d8deb292a44d411E', symObjAddr: 0x2E2A0, symBinAddr: 0x316A4, symSize: 0x34 }
  - { offsetInCU: 0x453A, offset: 0xB949A, size: 0x8, addend: 0x0, symName: '__ZN4core3fmt3num3imp52_$LT$impl$u20$core..fmt..Display$u20$for$u20$u64$GT$3fmt17ha7caf07f2e9a8975E', symObjAddr: 0x2B748, symBinAddr: 0x2EE9C, symSize: 0x140 }
  - { offsetInCU: 0x4542, offset: 0xB94A2, size: 0x8, addend: 0x0, symName: __ZN4core3fmt9Arguments6new_v117hd5bbf3bd4ecb9b1dE.663, symObjAddr: 0x2B888, symBinAddr: 0x2EFDC, symSize: 0x60 }
  - { offsetInCU: 0x461F, offset: 0xB957F, size: 0x8, addend: 0x0, symName: '__ZN4core3fmt3num3imp52_$LT$impl$u20$core..fmt..Display$u20$for$u20$u32$GT$3fmt17h57b302393ea2f6e6E', symObjAddr: 0x2D620, symBinAddr: 0x30B00, symSize: 0x140 }
  - { offsetInCU: 0x4627, offset: 0xB9587, size: 0x8, addend: 0x0, symName: __ZN4core6option13expect_failed17ha213c95af5bd1e64E, symObjAddr: 0x2D760, symBinAddr: 0x1D132C, symSize: 0x50 }
  - { offsetInCU: 0x4714, offset: 0xB9674, size: 0x8, addend: 0x0, symName: '__ZN4core3fmt3num3imp52_$LT$impl$u20$core..fmt..Display$u20$for$u20$i32$GT$3fmt17h264749b791e75429E', symObjAddr: 0x32D38, symBinAddr: 0x360F4, symSize: 0x154 }
  - { offsetInCU: 0x471C, offset: 0xB967C, size: 0x8, addend: 0x0, symName: '__ZN4core3fmt3num3imp52_$LT$impl$u20$core..fmt..Display$u20$for$u20$i64$GT$3fmt17ha2e9a73d14886827E', symObjAddr: 0x32E8C, symBinAddr: 0x36248, symSize: 0x150 }
  - { offsetInCU: 0x47D8, offset: 0xB9738, size: 0x8, addend: 0x0, symName: '__ZN4core3fmt3num3imp52_$LT$impl$u20$core..fmt..Display$u20$for$u20$i64$GT$3fmt17ha2e9a73d14886827E', symObjAddr: 0x32E8C, symBinAddr: 0x36248, symSize: 0x150 }
  - { offsetInCU: 0x47E0, offset: 0xB9740, size: 0x8, addend: 0x0, symName: '__ZN64_$LT$core..str..error..Utf8Error$u20$as$u20$core..fmt..Debug$GT$3fmt17h9d3dcbd9fa0d1deaE', symObjAddr: 0x32FDC, symBinAddr: 0x36398, symSize: 0xF4 }
  - { offsetInCU: 0x495E, offset: 0xB98BE, size: 0x8, addend: 0x0, symName: '__ZN4core3fmt3num50_$LT$impl$u20$core..fmt..Debug$u20$for$u20$u64$GT$3fmt17h9d0928624b52a6e2E', symObjAddr: 0x2C6E4, symBinAddr: 0x2FC80, symSize: 0x224 }
  - { offsetInCU: 0x4966, offset: 0xB98C6, size: 0x8, addend: 0x0, symName: __ZN4core3num7flt2dec8strategy6dragon9mul_pow1017h8bb5a20b72fff25bE, symObjAddr: 0x2C908, symBinAddr: 0x2FEA4, symSize: 0x174 }
  - { offsetInCU: 0x4BDE, offset: 0xB9B3E, size: 0x8, addend: 0x0, symName: '__ZN4core3fmt3num53_$LT$impl$u20$core..fmt..LowerHex$u20$for$u20$i64$GT$3fmt17hffa3b1f2e40dfd37E', symObjAddr: 0x2D9A8, symBinAddr: 0x30DAC, symSize: 0x9C }
  - { offsetInCU: 0x4BE6, offset: 0xB9B46, size: 0x8, addend: 0x0, symName: '__ZN68_$LT$core..fmt..builders..PadAdapter$u20$as$u20$core..fmt..Write$GT$9write_str17hbb5969dfc7f9bde8E', symObjAddr: 0x2DA44, symBinAddr: 0x30E48, symSize: 0x23C }
  - { offsetInCU: 0x4D51, offset: 0xB9CB1, size: 0x8, addend: 0x0, symName: '__ZN4core3fmt3num53_$LT$impl$u20$core..fmt..UpperHex$u20$for$u20$i64$GT$3fmt17h4ca88447bc6ee5fdE', symObjAddr: 0x32C9C, symBinAddr: 0x36058, symSize: 0x9C }
  - { offsetInCU: 0x4D59, offset: 0xB9CB9, size: 0x8, addend: 0x0, symName: '__ZN4core3fmt3num3imp52_$LT$impl$u20$core..fmt..Display$u20$for$u20$i32$GT$3fmt17h264749b791e75429E', symObjAddr: 0x32D38, symBinAddr: 0x360F4, symSize: 0x154 }
  - { offsetInCU: 0x4F01, offset: 0xB9E61, size: 0x8, addend: 0x0, symName: __ZN4core3fmt9Arguments6new_v117hd5bbf3bd4ecb9b1dE.663, symObjAddr: 0x2B888, symBinAddr: 0x2EFDC, symSize: 0x60 }
  - { offsetInCU: 0x4F09, offset: 0xB9E69, size: 0x8, addend: 0x0, symName: __ZN4core3fmt9Formatter12pad_integral17h386392f894347045E, symObjAddr: 0x2B8E8, symBinAddr: 0x2F03C, symSize: 0x290 }
  - { offsetInCU: 0x4FA1, offset: 0xB9F01, size: 0x8, addend: 0x0, symName: __ZN4core3fmt9Formatter12pad_integral12write_prefix17hf69a61ecb491632bE, symObjAddr: 0x2BE98, symBinAddr: 0x2F5EC, symSize: 0x7C }
  - { offsetInCU: 0x4FA9, offset: 0xB9F09, size: 0x8, addend: 0x0, symName: __ZN4core5slice5index24slice_end_index_len_fail17h47551c0fa274bd98E, symObjAddr: 0x2BF14, symBinAddr: 0x1D10B8, symSize: 0x58 }
  - { offsetInCU: 0x4FDF, offset: 0xB9F3F, size: 0x8, addend: 0x0, symName: '__ZN42_$LT$$RF$T$u20$as$u20$core..fmt..Debug$GT$3fmt17hdac882f1805cbc9cE', symObjAddr: 0x2C4A0, symBinAddr: 0x2FA3C, symSize: 0x10 }
  - { offsetInCU: 0x4FE7, offset: 0xB9F47, size: 0x8, addend: 0x0, symName: '__ZN59_$LT$core..fmt..Arguments$u20$as$u20$core..fmt..Display$GT$3fmt17h0fb33d5ccde75918E', symObjAddr: 0x2C4B0, symBinAddr: 0x2FA4C, symSize: 0xC }
  - { offsetInCU: 0x5000, offset: 0xB9F60, size: 0x8, addend: 0x0, symName: '__ZN42_$LT$$RF$T$u20$as$u20$core..fmt..Debug$GT$3fmt17haeed5238a86a1832E', symObjAddr: 0x2C6DC, symBinAddr: 0x2FC78, symSize: 0x8 }
  - { offsetInCU: 0x5008, offset: 0xB9F68, size: 0x8, addend: 0x0, symName: '__ZN4core3fmt3num50_$LT$impl$u20$core..fmt..Debug$u20$for$u20$u64$GT$3fmt17h9d0928624b52a6e2E', symObjAddr: 0x2C6E4, symBinAddr: 0x2FC80, symSize: 0x224 }
  - { offsetInCU: 0x5021, offset: 0xB9F81, size: 0x8, addend: 0x0, symName: '__ZN42_$LT$$RF$T$u20$as$u20$core..fmt..Debug$GT$3fmt17he1c508afc3054ef2E', symObjAddr: 0x2FE34, symBinAddr: 0x331F0, symSize: 0x188 }
  - { offsetInCU: 0x5029, offset: 0xB9F89, size: 0x8, addend: 0x0, symName: '__ZN42_$LT$$RF$T$u20$as$u20$core..fmt..Debug$GT$3fmt17h224a95ffdf03348aE', symObjAddr: 0x2FFBC, symBinAddr: 0x33378, symSize: 0x14 }
  - { offsetInCU: 0x5253, offset: 0xBA1B3, size: 0x8, addend: 0x0, symName: '__ZN42_$LT$$RF$T$u20$as$u20$core..fmt..Debug$GT$3fmt17h224a95ffdf03348aE', symObjAddr: 0x2FFBC, symBinAddr: 0x33378, symSize: 0x14 }
  - { offsetInCU: 0x525B, offset: 0xBA1BB, size: 0x8, addend: 0x0, symName: '__ZN68_$LT$core..num..error..ParseIntError$u20$as$u20$core..fmt..Debug$GT$3fmt17haa10bcc35df6ce4dE', symObjAddr: 0x2FFD0, symBinAddr: 0x3338C, symSize: 0xCC }
  - { offsetInCU: 0x5280, offset: 0xBA1E0, size: 0x8, addend: 0x0, symName: '__ZN68_$LT$core..num..error..ParseIntError$u20$as$u20$core..fmt..Debug$GT$3fmt17haa10bcc35df6ce4dE', symObjAddr: 0x2FFD0, symBinAddr: 0x3338C, symSize: 0xCC }
  - { offsetInCU: 0x528F, offset: 0xBA1EF, size: 0x8, addend: 0x0, symName: '__ZN42_$LT$$RF$T$u20$as$u20$core..fmt..Debug$GT$3fmt17h10ff6f49e4d7b9e1E', symObjAddr: 0x3009C, symBinAddr: 0x33458, symSize: 0x34 }
  - { offsetInCU: 0x5297, offset: 0xBA1F7, size: 0x8, addend: 0x0, symName: '__ZN4core3num60_$LT$impl$u20$core..str..traits..FromStr$u20$for$u20$u64$GT$8from_str17h2129ef1c2e62cce9E', symObjAddr: 0x300D0, symBinAddr: 0x3348C, symSize: 0xE4 }
  - { offsetInCU: 0x52BC, offset: 0xBA21C, size: 0x8, addend: 0x0, symName: '__ZN4core3num60_$LT$impl$u20$core..str..traits..FromStr$u20$for$u20$u64$GT$8from_str17h2129ef1c2e62cce9E', symObjAddr: 0x300D0, symBinAddr: 0x3348C, symSize: 0xE4 }
  - { offsetInCU: 0x52D6, offset: 0xBA236, size: 0x8, addend: 0x0, symName: '__ZN4core3num60_$LT$impl$u20$core..str..traits..FromStr$u20$for$u20$u64$GT$8from_str17h2129ef1c2e62cce9E', symObjAddr: 0x300D0, symBinAddr: 0x3348C, symSize: 0xE4 }
  - { offsetInCU: 0x52E5, offset: 0xBA245, size: 0x8, addend: 0x0, symName: '__ZN42_$LT$$RF$T$u20$as$u20$core..fmt..Debug$GT$3fmt17h95a6f5d4c90990b5E', symObjAddr: 0x330D0, symBinAddr: 0x3648C, symSize: 0x114 }
  - { offsetInCU: 0x52ED, offset: 0xBA24D, size: 0x8, addend: 0x0, symName: __ZN4core7unicode12unicode_data14case_ignorable6lookup17ha9120fe0b7052482E, symObjAddr: 0x331E4, symBinAddr: 0x365A0, symSize: 0x130 }
  - { offsetInCU: 0x53F3, offset: 0xBA353, size: 0x8, addend: 0x0, symName: '__ZN59_$LT$core..fmt..Arguments$u20$as$u20$core..fmt..Display$GT$3fmt17h0fb33d5ccde75918E', symObjAddr: 0x2C4B0, symBinAddr: 0x2FA4C, symSize: 0xC }
  - { offsetInCU: 0x53FB, offset: 0xBA35B, size: 0x8, addend: 0x0, symName: __ZN4core3fmt5write17h5263026c87dd78ebE, symObjAddr: 0x2C4BC, symBinAddr: 0x2FA58, symSize: 0x220 }
  - { offsetInCU: 0x5434, offset: 0xBA394, size: 0x8, addend: 0x0, symName: __ZN4core3fmt5write17h5263026c87dd78ebE, symObjAddr: 0x2C4BC, symBinAddr: 0x2FA58, symSize: 0x220 }
  - { offsetInCU: 0x543C, offset: 0xBA39C, size: 0x8, addend: 0x0, symName: '__ZN42_$LT$$RF$T$u20$as$u20$core..fmt..Debug$GT$3fmt17haeed5238a86a1832E', symObjAddr: 0x2C6DC, symBinAddr: 0x2FC78, symSize: 0x8 }
  - { offsetInCU: 0x568D, offset: 0xBA5ED, size: 0x8, addend: 0x0, symName: '__ZN53_$LT$core..fmt..Error$u20$as$u20$core..fmt..Debug$GT$3fmt17hee9a5a15a22f6c2eE', symObjAddr: 0x2D608, symBinAddr: 0x30AE8, symSize: 0x18 }
  - { offsetInCU: 0x5695, offset: 0xBA5F5, size: 0x8, addend: 0x0, symName: '__ZN4core3fmt3num3imp52_$LT$impl$u20$core..fmt..Display$u20$for$u20$u32$GT$3fmt17h57b302393ea2f6e6E', symObjAddr: 0x2D620, symBinAddr: 0x30B00, symSize: 0x140 }
  - { offsetInCU: 0x56B2, offset: 0xBA612, size: 0x8, addend: 0x0, symName: '__ZN53_$LT$core..fmt..Error$u20$as$u20$core..fmt..Debug$GT$3fmt17hee9a5a15a22f6c2eE', symObjAddr: 0x2D608, symBinAddr: 0x30AE8, symSize: 0x18 }
  - { offsetInCU: 0x56BA, offset: 0xBA61A, size: 0x8, addend: 0x0, symName: '__ZN4core3fmt3num3imp52_$LT$impl$u20$core..fmt..Display$u20$for$u20$u32$GT$3fmt17h57b302393ea2f6e6E', symObjAddr: 0x2D620, symBinAddr: 0x30B00, symSize: 0x140 }
  - { offsetInCU: 0x56CF, offset: 0xBA62F, size: 0x8, addend: 0x0, symName: __ZN4core3fmt5Write10write_char17h63220d95f8f330e9E, symObjAddr: 0x2DE2C, symBinAddr: 0x31230, symSize: 0xC8 }
  - { offsetInCU: 0x56D7, offset: 0xBA637, size: 0x8, addend: 0x0, symName: __ZN4core3fmt5Write9write_fmt17h7cf73741b76b610bE, symObjAddr: 0x2DEF4, symBinAddr: 0x312F8, symSize: 0x30 }
  - { offsetInCU: 0x572B, offset: 0xBA68B, size: 0x8, addend: 0x0, symName: __ZN4core3fmt5Write9write_fmt17h7cf73741b76b610bE, symObjAddr: 0x2DEF4, symBinAddr: 0x312F8, symSize: 0x30 }
  - { offsetInCU: 0x5733, offset: 0xBA693, size: 0x8, addend: 0x0, symName: '__ZN50_$LT$$RF$mut$u20$W$u20$as$u20$core..fmt..Write$GT$9write_str17hc92f5268a04668d1E', symObjAddr: 0x2DF24, symBinAddr: 0x31328, symSize: 0x8 }
  - { offsetInCU: 0x5766, offset: 0xBA6C6, size: 0x8, addend: 0x0, symName: '__ZN50_$LT$$RF$mut$u20$W$u20$as$u20$core..fmt..Write$GT$9write_str17hc92f5268a04668d1E', symObjAddr: 0x2DF24, symBinAddr: 0x31328, symSize: 0x8 }
  - { offsetInCU: 0x576E, offset: 0xBA6CE, size: 0x8, addend: 0x0, symName: '__ZN50_$LT$$RF$mut$u20$W$u20$as$u20$core..fmt..Write$GT$10write_char17hb8398711545cdd5cE', symObjAddr: 0x2DF2C, symBinAddr: 0x31330, symSize: 0xCC }
  - { offsetInCU: 0x5786, offset: 0xBA6E6, size: 0x8, addend: 0x0, symName: '__ZN50_$LT$$RF$mut$u20$W$u20$as$u20$core..fmt..Write$GT$10write_char17hb8398711545cdd5cE', symObjAddr: 0x2DF2C, symBinAddr: 0x31330, symSize: 0xCC }
  - { offsetInCU: 0x578E, offset: 0xBA6EE, size: 0x8, addend: 0x0, symName: '__ZN50_$LT$$RF$mut$u20$W$u20$as$u20$core..fmt..Write$GT$9write_fmt17h805a2f5b370caa7bE', symObjAddr: 0x2DFF8, symBinAddr: 0x313FC, symSize: 0x34 }
  - { offsetInCU: 0x5803, offset: 0xBA763, size: 0x8, addend: 0x0, symName: '__ZN50_$LT$$RF$mut$u20$W$u20$as$u20$core..fmt..Write$GT$9write_fmt17h805a2f5b370caa7bE', symObjAddr: 0x2DFF8, symBinAddr: 0x313FC, symSize: 0x34 }
  - { offsetInCU: 0x580B, offset: 0xBA76B, size: 0x8, addend: 0x0, symName: __ZN4core3fmt8builders10DebugTuple5field17h45a317b8f59d2652E, symObjAddr: 0x2E02C, symBinAddr: 0x31430, symSize: 0x140 }
  - { offsetInCU: 0x585A, offset: 0xBA7BA, size: 0x8, addend: 0x0, symName: '__ZN43_$LT$bool$u20$as$u20$core..fmt..Display$GT$3fmt17h6d8deb292a44d411E', symObjAddr: 0x2E2A0, symBinAddr: 0x316A4, symSize: 0x34 }
  - { offsetInCU: 0x5862, offset: 0xBA7C2, size: 0x8, addend: 0x0, symName: '__ZN40_$LT$str$u20$as$u20$core..fmt..Debug$GT$3fmt17hda2551279f924e92E', symObjAddr: 0x2E2D4, symBinAddr: 0x316D8, symSize: 0x360 }
  - { offsetInCU: 0x58A2, offset: 0xBA802, size: 0x8, addend: 0x0, symName: '__ZN40_$LT$str$u20$as$u20$core..fmt..Debug$GT$3fmt17hda2551279f924e92E', symObjAddr: 0x2E2D4, symBinAddr: 0x316D8, symSize: 0x360 }
  - { offsetInCU: 0x58CF, offset: 0xBA82F, size: 0x8, addend: 0x0, symName: '__ZN40_$LT$str$u20$as$u20$core..fmt..Debug$GT$3fmt17hda2551279f924e92E', symObjAddr: 0x2E2D4, symBinAddr: 0x316D8, symSize: 0x360 }
  - { offsetInCU: 0x58D7, offset: 0xBA837, size: 0x8, addend: 0x0, symName: '__ZN4core4char7methods22_$LT$impl$u20$char$GT$16escape_debug_ext17h9170ffbb2058bcf3E', symObjAddr: 0x2E634, symBinAddr: 0x31A38, symSize: 0x2E4 }
  - { offsetInCU: 0x5CDA, offset: 0xBAC3A, size: 0x8, addend: 0x0, symName: '__ZN41_$LT$char$u20$as$u20$core..fmt..Debug$GT$3fmt17h8e320a0860252501E', symObjAddr: 0x2ECEC, symBinAddr: 0x320E4, symSize: 0x164 }
  - { offsetInCU: 0x5CE2, offset: 0xBAC42, size: 0x8, addend: 0x0, symName: '__ZN71_$LT$core..ops..range..Range$LT$Idx$GT$$u20$as$u20$core..fmt..Debug$GT$3fmt17hbf6a601b575eb09dE', symObjAddr: 0x2EE50, symBinAddr: 0x32248, symSize: 0x7C }
  - { offsetInCU: 0x5E21, offset: 0xBAD81, size: 0x8, addend: 0x0, symName: '__ZN43_$LT$char$u20$as$u20$core..fmt..Display$GT$3fmt17h10c0611bad32c8afE', symObjAddr: 0x2F120, symBinAddr: 0x32518, symSize: 0xF0 }
  - { offsetInCU: 0x5E29, offset: 0xBAD89, size: 0x8, addend: 0x0, symName: __ZN4core5slice6memchr14memchr_aligned17h6c46650bc7e890e7E, symObjAddr: 0x2F210, symBinAddr: 0x32608, symSize: 0xEC }
  - { offsetInCU: 0x5EDB, offset: 0xBAE3B, size: 0x8, addend: 0x0, symName: __ZN4core3fmt5float29float_to_decimal_common_exact17h40810a864802de69E, symObjAddr: 0x306BC, symBinAddr: 0x33A78, symSize: 0x11E4 }
  - { offsetInCU: 0x5EE3, offset: 0xBAE43, size: 0x8, addend: 0x0, symName: __ZN4core3fmt5float32float_to_decimal_common_shortest17h3a91d2543a779b9eE, symObjAddr: 0x318A0, symBinAddr: 0x34C5C, symSize: 0x13CC }
  - { offsetInCU: 0x7AC4, offset: 0xBCA24, size: 0x8, addend: 0x0, symName: __ZN4core3fmt5float32float_to_decimal_common_shortest17h3a91d2543a779b9eE, symObjAddr: 0x318A0, symBinAddr: 0x34C5C, symSize: 0x13CC }
  - { offsetInCU: 0x7ACC, offset: 0xBCA2C, size: 0x8, addend: 0x0, symName: '__ZN4core3fmt5float52_$LT$impl$u20$core..fmt..Display$u20$for$u20$f64$GT$3fmt17h736a20ffee1cac29E', symObjAddr: 0x32C6C, symBinAddr: 0x36028, symSize: 0x30 }
  - { offsetInCU: 0x9BBB, offset: 0xBEB1B, size: 0x8, addend: 0x0, symName: '__ZN4core3fmt5float52_$LT$impl$u20$core..fmt..Display$u20$for$u20$f64$GT$3fmt17h736a20ffee1cac29E', symObjAddr: 0x32C6C, symBinAddr: 0x36028, symSize: 0x30 }
  - { offsetInCU: 0x9BC3, offset: 0xBEB23, size: 0x8, addend: 0x0, symName: '__ZN4core3fmt3num53_$LT$impl$u20$core..fmt..UpperHex$u20$for$u20$i64$GT$3fmt17h4ca88447bc6ee5fdE', symObjAddr: 0x32C9C, symBinAddr: 0x36058, symSize: 0x9C }
  - { offsetInCU: 0x9BE8, offset: 0xBEB48, size: 0x8, addend: 0x0, symName: '__ZN4core3fmt3num53_$LT$impl$u20$core..fmt..UpperHex$u20$for$u20$i64$GT$3fmt17h4ca88447bc6ee5fdE', symObjAddr: 0x32C9C, symBinAddr: 0x36058, symSize: 0x9C }
  - { offsetInCU: 0x9C29, offset: 0xBEB89, size: 0x8, addend: 0x0, symName: __ZN4core3ops8function6FnOnce9call_once17haaaea6a94c8fdf23E, symObjAddr: 0x2B638, symBinAddr: 0x2EE70, symSize: 0x8 }
  - { offsetInCU: 0x9C31, offset: 0xBEB91, size: 0x8, addend: 0x0, symName: __ZN4core9panicking9panic_fmt17h06eb190ce1642a22E, symObjAddr: 0x2B640, symBinAddr: 0x1D0FD4, symSize: 0x34 }
  - { offsetInCU: 0x9C4D, offset: 0xBEBAD, size: 0x8, addend: 0x0, symName: __ZN4core3ops8function6FnOnce9call_once17haaaea6a94c8fdf23E, symObjAddr: 0x2B638, symBinAddr: 0x2EE70, symSize: 0x8 }
  - { offsetInCU: 0x9C55, offset: 0xBEBB5, size: 0x8, addend: 0x0, symName: __ZN4core9panicking9panic_fmt17h06eb190ce1642a22E, symObjAddr: 0x2B640, symBinAddr: 0x1D0FD4, symSize: 0x34 }
  - { offsetInCU: 0x9C66, offset: 0xBEBC6, size: 0x8, addend: 0x0, symName: __ZN4core3ops8function6FnOnce9call_once17haaaea6a94c8fdf23E, symObjAddr: 0x2B638, symBinAddr: 0x2EE70, symSize: 0x8 }
  - { offsetInCU: 0x9D79, offset: 0xBECD9, size: 0x8, addend: 0x0, symName: '__ZN71_$LT$core..ops..range..Range$LT$Idx$GT$$u20$as$u20$core..fmt..Debug$GT$3fmt17hbf6a601b575eb09dE', symObjAddr: 0x2EE50, symBinAddr: 0x32248, symSize: 0x7C }
  - { offsetInCU: 0x9D81, offset: 0xBECE1, size: 0x8, addend: 0x0, symName: __ZN4core7unicode12unicode_data15grapheme_extend6lookup17h88fb3446aec8be35E, symObjAddr: 0x2EECC, symBinAddr: 0x322C4, symSize: 0x130 }
  - { offsetInCU: 0x9E9D, offset: 0xBEDFD, size: 0x8, addend: 0x0, symName: '__ZN73_$LT$core..panic..panic_info..PanicInfo$u20$as$u20$core..fmt..Display$GT$3fmt17hf2b5fb1da750406fE', symObjAddr: 0x2D7B0, symBinAddr: 0x30C40, symSize: 0x16C }
  - { offsetInCU: 0x9EA5, offset: 0xBEE05, size: 0x8, addend: 0x0, symName: __ZN4core9panicking18panic_nounwind_fmt17hf0012b43db2de03cE, symObjAddr: 0x2D91C, symBinAddr: 0x1D137C, symSize: 0x40 }
  - { offsetInCU: 0xA015, offset: 0xBEF75, size: 0x8, addend: 0x0, symName: __ZN4core9panicking9panic_fmt17h06eb190ce1642a22E, symObjAddr: 0x2B640, symBinAddr: 0x1D0FD4, symSize: 0x34 }
  - { offsetInCU: 0xA01D, offset: 0xBEF7D, size: 0x8, addend: 0x0, symName: '__ZN36_$LT$T$u20$as$u20$core..any..Any$GT$7type_id17h4f598b66ca0b5d89E', symObjAddr: 0x2B674, symBinAddr: 0x2EE78, symSize: 0x24 }
  - { offsetInCU: 0xA050, offset: 0xBEFB0, size: 0x8, addend: 0x0, symName: __ZN4core9panicking18panic_bounds_check17h436c1dc2b60e8a6eE, symObjAddr: 0x2B6F0, symBinAddr: 0x1D1060, symSize: 0x58 }
  - { offsetInCU: 0xA058, offset: 0xBEFB8, size: 0x8, addend: 0x0, symName: '__ZN4core3fmt3num3imp52_$LT$impl$u20$core..fmt..Display$u20$for$u20$u64$GT$3fmt17ha7caf07f2e9a8975E', symObjAddr: 0x2B748, symBinAddr: 0x2EE9C, symSize: 0x140 }
  - { offsetInCU: 0xA071, offset: 0xBEFD1, size: 0x8, addend: 0x0, symName: __ZN4core9panicking5panic17h9b4179dbc457f51dE, symObjAddr: 0x2C340, symBinAddr: 0x1D1110, symSize: 0x38 }
  - { offsetInCU: 0xA079, offset: 0xBEFD9, size: 0x8, addend: 0x0, symName: __ZN4core9panicking13assert_failed17h8cb46db079a46f1bE, symObjAddr: 0x2C378, symBinAddr: 0x1D1148, symSize: 0x34 }
  - { offsetInCU: 0xA0AC, offset: 0xBF00C, size: 0x8, addend: 0x0, symName: __ZN4core9panicking13assert_failed17h8cb46db079a46f1bE, symObjAddr: 0x2C378, symBinAddr: 0x1D1148, symSize: 0x34 }
  - { offsetInCU: 0xA0B4, offset: 0xBF014, size: 0x8, addend: 0x0, symName: __ZN4core9panicking19assert_failed_inner17h998bd9fc32f28f02E, symObjAddr: 0x2C3AC, symBinAddr: 0x1D117C, symSize: 0xF4 }
  - { offsetInCU: 0xA0CD, offset: 0xBF02D, size: 0x8, addend: 0x0, symName: __ZN4core9panicking19assert_failed_inner17h998bd9fc32f28f02E, symObjAddr: 0x2C3AC, symBinAddr: 0x1D117C, symSize: 0xF4 }
  - { offsetInCU: 0xA0D5, offset: 0xBF035, size: 0x8, addend: 0x0, symName: '__ZN42_$LT$$RF$T$u20$as$u20$core..fmt..Debug$GT$3fmt17hdac882f1805cbc9cE', symObjAddr: 0x2C4A0, symBinAddr: 0x2FA3C, symSize: 0x10 }
  - { offsetInCU: 0xA10E, offset: 0xBF06E, size: 0x8, addend: 0x0, symName: __ZN4core9panicking18panic_nounwind_fmt17hf0012b43db2de03cE, symObjAddr: 0x2D91C, symBinAddr: 0x1D137C, symSize: 0x40 }
  - { offsetInCU: 0xA116, offset: 0xBF076, size: 0x8, addend: 0x0, symName: __ZN4core9panicking19panic_cannot_unwind17ha7ad15c2df0205a7E, symObjAddr: 0x2D95C, symBinAddr: 0x1D13BC, symSize: 0xC }
  - { offsetInCU: 0xA14A, offset: 0xBF0AA, size: 0x8, addend: 0x0, symName: __ZN4core9panicking19panic_cannot_unwind17ha7ad15c2df0205a7E, symObjAddr: 0x2D95C, symBinAddr: 0x1D13BC, symSize: 0xC }
  - { offsetInCU: 0xA152, offset: 0xBF0B2, size: 0x8, addend: 0x0, symName: __ZN4core9panicking14panic_nounwind17hfbc23ae74849ce90E, symObjAddr: 0x2D968, symBinAddr: 0x1D13C8, symSize: 0x40 }
  - { offsetInCU: 0xA16B, offset: 0xBF0CB, size: 0x8, addend: 0x0, symName: __ZN4core9panicking14panic_nounwind17hfbc23ae74849ce90E, symObjAddr: 0x2D968, symBinAddr: 0x1D13C8, symSize: 0x40 }
  - { offsetInCU: 0xA173, offset: 0xBF0D3, size: 0x8, addend: 0x0, symName: '__ZN4core3fmt3num53_$LT$impl$u20$core..fmt..LowerHex$u20$for$u20$i64$GT$3fmt17hffa3b1f2e40dfd37E', symObjAddr: 0x2D9A8, symBinAddr: 0x30DAC, symSize: 0x9C }
  - { offsetInCU: 0xA1B4, offset: 0xBF114, size: 0x8, addend: 0x0, symName: '__ZN36_$LT$T$u20$as$u20$core..any..Any$GT$7type_id17h4f598b66ca0b5d89E', symObjAddr: 0x2B674, symBinAddr: 0x2EE78, symSize: 0x24 }
  - { offsetInCU: 0xA1BC, offset: 0xBF11C, size: 0x8, addend: 0x0, symName: __ZN4core5slice5index26slice_start_index_len_fail17hc4d43eb0c7c5909cE, symObjAddr: 0x2B698, symBinAddr: 0x1D1008, symSize: 0x58 }
  - { offsetInCU: 0xA794, offset: 0xBF6F4, size: 0x8, addend: 0x0, symName: __ZN4core3str5count14do_count_chars17h4e5d68ca55d16cc6E, symObjAddr: 0x2BB78, symBinAddr: 0x2F2CC, symSize: 0x320 }
  - { offsetInCU: 0xA79C, offset: 0xBF6FC, size: 0x8, addend: 0x0, symName: __ZN4core3fmt9Formatter12pad_integral12write_prefix17hf69a61ecb491632bE, symObjAddr: 0x2BE98, symBinAddr: 0x2F5EC, symSize: 0x7C }
  - { offsetInCU: 0xA7B9, offset: 0xBF719, size: 0x8, addend: 0x0, symName: __ZN4core3str5count14do_count_chars17h4e5d68ca55d16cc6E, symObjAddr: 0x2BB78, symBinAddr: 0x2F2CC, symSize: 0x320 }
  - { offsetInCU: 0xA7D2, offset: 0xBF732, size: 0x8, addend: 0x0, symName: __ZN4core3str5count14do_count_chars17h4e5d68ca55d16cc6E, symObjAddr: 0x2BB78, symBinAddr: 0x2F2CC, symSize: 0x320 }
  - { offsetInCU: 0xAD85, offset: 0xBFCE5, size: 0x8, addend: 0x0, symName: __ZN4core3str6traits23str_index_overflow_fail17he888ba6998020dc8E, symObjAddr: 0x2F2FC, symBinAddr: 0x1D1414, symSize: 0x3C }
  - { offsetInCU: 0xAD8D, offset: 0xBFCED, size: 0x8, addend: 0x0, symName: __ZN4core3str7pattern11StrSearcher3new17he1f06d6a4f44b98aE, symObjAddr: 0x2F338, symBinAddr: 0x326F4, symSize: 0x918 }
  - { offsetInCU: 0xADC8, offset: 0xBFD28, size: 0x8, addend: 0x0, symName: __ZN4core3str8converts9from_utf817h8b9b1c2e85d85001E, symObjAddr: 0x2D320, symBinAddr: 0x30864, symSize: 0x284 }
  - { offsetInCU: 0xADD0, offset: 0xBFD30, size: 0x8, addend: 0x0, symName: __ZN4core6result13unwrap_failed17ha5278aabaa678340E, symObjAddr: 0x2D5A4, symBinAddr: 0x1D12C8, symSize: 0x64 }
  - { offsetInCU: 0xADED, offset: 0xBFD4D, size: 0x8, addend: 0x0, symName: __ZN4core3str8converts9from_utf817h8b9b1c2e85d85001E, symObjAddr: 0x2D320, symBinAddr: 0x30864, symSize: 0x284 }
  - { offsetInCU: 0xAF26, offset: 0xBFE86, size: 0x8, addend: 0x0, symName: __ZN4core3str7pattern11StrSearcher3new17he1f06d6a4f44b98aE, symObjAddr: 0x2F338, symBinAddr: 0x326F4, symSize: 0x918 }
  - { offsetInCU: 0xAF2E, offset: 0xBFE8E, size: 0x8, addend: 0x0, symName: '__ZN87_$LT$core..str..lossy..Utf8Chunks$u20$as$u20$core..iter..traits..iterator..Iterator$GT$4next17h3f3687e4064d58baE', symObjAddr: 0x2FC50, symBinAddr: 0x3300C, symSize: 0x1E4 }
  - { offsetInCU: 0xB1B1, offset: 0xC0111, size: 0x8, addend: 0x0, symName: __ZN4core3str16slice_error_fail17h9061b1a7713a4c0fE, symObjAddr: 0x2E918, symBinAddr: 0x1D1408, symSize: 0xC }
  - { offsetInCU: 0xB1B9, offset: 0xC0119, size: 0x8, addend: 0x0, symName: __ZN4core3str19slice_error_fail_rt17h0ec98e25eee766e8E, symObjAddr: 0x2E924, symBinAddr: 0x31D1C, symSize: 0x3C8 }
  - { offsetInCU: 0xB1D2, offset: 0xC0132, size: 0x8, addend: 0x0, symName: __ZN4core3str19slice_error_fail_rt17h0ec98e25eee766e8E, symObjAddr: 0x2E924, symBinAddr: 0x31D1C, symSize: 0x3C8 }
  - { offsetInCU: 0xB1DA, offset: 0xC013A, size: 0x8, addend: 0x0, symName: '__ZN41_$LT$char$u20$as$u20$core..fmt..Debug$GT$3fmt17h8e320a0860252501E', symObjAddr: 0x2ECEC, symBinAddr: 0x320E4, symSize: 0x164 }
  - { offsetInCU: 0xB4B7, offset: 0xC0417, size: 0x8, addend: 0x0, symName: '__ZN87_$LT$core..str..lossy..Utf8Chunks$u20$as$u20$core..iter..traits..iterator..Iterator$GT$4next17h3f3687e4064d58baE', symObjAddr: 0x2FC50, symBinAddr: 0x3300C, symSize: 0x1E4 }
  - { offsetInCU: 0xB4BF, offset: 0xC041F, size: 0x8, addend: 0x0, symName: '__ZN42_$LT$$RF$T$u20$as$u20$core..fmt..Debug$GT$3fmt17he1c508afc3054ef2E', symObjAddr: 0x2FE34, symBinAddr: 0x331F0, symSize: 0x188 }
  - { offsetInCU: 0xB7D2, offset: 0xC0732, size: 0x8, addend: 0x0, symName: '__ZN64_$LT$core..str..error..Utf8Error$u20$as$u20$core..fmt..Debug$GT$3fmt17h9d3dcbd9fa0d1deaE', symObjAddr: 0x32FDC, symBinAddr: 0x36398, symSize: 0xF4 }
  - { offsetInCU: 0xB7DA, offset: 0xC073A, size: 0x8, addend: 0x0, symName: '__ZN42_$LT$$RF$T$u20$as$u20$core..fmt..Debug$GT$3fmt17h95a6f5d4c90990b5E', symObjAddr: 0x330D0, symBinAddr: 0x3648C, symSize: 0x114 }
  - { offsetInCU: 0xBA0F, offset: 0xC096F, size: 0x8, addend: 0x0, symName: '__ZN67_$LT$core..array..TryFromSliceError$u20$as$u20$core..fmt..Debug$GT$3fmt17h4a9facc9d38ac3fcE', symObjAddr: 0x301B4, symBinAddr: 0x33570, symSize: 0xE0 }
  - { offsetInCU: 0xBA17, offset: 0xC0977, size: 0x8, addend: 0x0, symName: __ZN4core3fmt9Formatter19pad_formatted_parts17ha71bc02e23b5ea7eE, symObjAddr: 0x30294, symBinAddr: 0x33650, symSize: 0x220 }
  - { offsetInCU: 0xBB06, offset: 0xC0A66, size: 0x8, addend: 0x0, symName: '__ZN60_$LT$core..cell..BorrowError$u20$as$u20$core..fmt..Debug$GT$3fmt17hbcdf6fe1c91ed193E', symObjAddr: 0x2D2F0, symBinAddr: 0x30834, symSize: 0x18 }
  - { offsetInCU: 0xBB0E, offset: 0xC0A6E, size: 0x8, addend: 0x0, symName: '__ZN63_$LT$core..cell..BorrowMutError$u20$as$u20$core..fmt..Debug$GT$3fmt17h628d351262499e14E', symObjAddr: 0x2D308, symBinAddr: 0x3084C, symSize: 0x18 }
  - { offsetInCU: 0xBB2C, offset: 0xC0A8C, size: 0x8, addend: 0x0, symName: '__ZN60_$LT$core..cell..BorrowError$u20$as$u20$core..fmt..Debug$GT$3fmt17hbcdf6fe1c91ed193E', symObjAddr: 0x2D2F0, symBinAddr: 0x30834, symSize: 0x18 }
  - { offsetInCU: 0xBB34, offset: 0xC0A94, size: 0x8, addend: 0x0, symName: '__ZN63_$LT$core..cell..BorrowMutError$u20$as$u20$core..fmt..Debug$GT$3fmt17h628d351262499e14E', symObjAddr: 0x2D308, symBinAddr: 0x3084C, symSize: 0x18 }
  - { offsetInCU: 0xBB46, offset: 0xC0AA6, size: 0x8, addend: 0x0, symName: '__ZN60_$LT$core..cell..BorrowError$u20$as$u20$core..fmt..Debug$GT$3fmt17hbcdf6fe1c91ed193E', symObjAddr: 0x2D2F0, symBinAddr: 0x30834, symSize: 0x18 }
  - { offsetInCU: 0xBB4E, offset: 0xC0AAE, size: 0x8, addend: 0x0, symName: '__ZN63_$LT$core..cell..BorrowMutError$u20$as$u20$core..fmt..Debug$GT$3fmt17h628d351262499e14E', symObjAddr: 0x2D308, symBinAddr: 0x3084C, symSize: 0x18 }
  - { offsetInCU: 0xBB60, offset: 0xC0AC0, size: 0x8, addend: 0x0, symName: '__ZN60_$LT$core..cell..BorrowError$u20$as$u20$core..fmt..Debug$GT$3fmt17hbcdf6fe1c91ed193E', symObjAddr: 0x2D2F0, symBinAddr: 0x30834, symSize: 0x18 }
  - { offsetInCU: 0xBB68, offset: 0xC0AC8, size: 0x8, addend: 0x0, symName: '__ZN63_$LT$core..cell..BorrowMutError$u20$as$u20$core..fmt..Debug$GT$3fmt17h628d351262499e14E', symObjAddr: 0x2D308, symBinAddr: 0x3084C, symSize: 0x18 }
  - { offsetInCU: 0xBB7F, offset: 0xC0ADF, size: 0x8, addend: 0x0, symName: '__ZN63_$LT$core..cell..BorrowMutError$u20$as$u20$core..fmt..Debug$GT$3fmt17h628d351262499e14E', symObjAddr: 0x2D308, symBinAddr: 0x3084C, symSize: 0x18 }
  - { offsetInCU: 0xBB87, offset: 0xC0AE7, size: 0x8, addend: 0x0, symName: __ZN4core3str8converts9from_utf817h8b9b1c2e85d85001E, symObjAddr: 0x2D320, symBinAddr: 0x30864, symSize: 0x284 }
  - { offsetInCU: 0xBBA5, offset: 0xC0B05, size: 0x8, addend: 0x0, symName: '__ZN63_$LT$core..cell..BorrowMutError$u20$as$u20$core..fmt..Debug$GT$3fmt17h628d351262499e14E', symObjAddr: 0x2D308, symBinAddr: 0x3084C, symSize: 0x18 }
  - { offsetInCU: 0xBBAD, offset: 0xC0B0D, size: 0x8, addend: 0x0, symName: __ZN4core3str8converts9from_utf817h8b9b1c2e85d85001E, symObjAddr: 0x2D320, symBinAddr: 0x30864, symSize: 0x284 }
  - { offsetInCU: 0xBBBF, offset: 0xC0B1F, size: 0x8, addend: 0x0, symName: '__ZN63_$LT$core..cell..BorrowMutError$u20$as$u20$core..fmt..Debug$GT$3fmt17h628d351262499e14E', symObjAddr: 0x2D308, symBinAddr: 0x3084C, symSize: 0x18 }
  - { offsetInCU: 0xBBC7, offset: 0xC0B27, size: 0x8, addend: 0x0, symName: __ZN4core3str8converts9from_utf817h8b9b1c2e85d85001E, symObjAddr: 0x2D320, symBinAddr: 0x30864, symSize: 0x284 }
  - { offsetInCU: 0xBBD9, offset: 0xC0B39, size: 0x8, addend: 0x0, symName: '__ZN63_$LT$core..cell..BorrowMutError$u20$as$u20$core..fmt..Debug$GT$3fmt17h628d351262499e14E', symObjAddr: 0x2D308, symBinAddr: 0x3084C, symSize: 0x18 }
  - { offsetInCU: 0xBBE1, offset: 0xC0B41, size: 0x8, addend: 0x0, symName: __ZN4core3str8converts9from_utf817h8b9b1c2e85d85001E, symObjAddr: 0x2D320, symBinAddr: 0x30864, symSize: 0x284 }
  - { offsetInCU: 0x1F, offset: 0xC0C80, size: 0x8, addend: 0x0, symName: __ZN6memchr6memchr8fallback6memchr17hb6d64473a11bd1f7E, symObjAddr: 0x6B028, symBinAddr: 0x6CAA0, symSize: 0x1A0 }
  - { offsetInCU: 0x27, offset: 0xC0C88, size: 0x8, addend: 0x0, symName: __ZN6object4read7archive16parse_u64_digits17he8a5a435523ef75eE, symObjAddr: 0x6B1C8, symBinAddr: 0x6CC40, symSize: 0x70 }
  - { offsetInCU: 0x99, offset: 0xC0CFA, size: 0x8, addend: 0x0, symName: __ZN6memchr6memchr8fallback6memchr17hb6d64473a11bd1f7E, symObjAddr: 0x6B028, symBinAddr: 0x6CAA0, symSize: 0x1A0 }
  - { offsetInCU: 0xA1, offset: 0xC0D02, size: 0x8, addend: 0x0, symName: __ZN6object4read7archive16parse_u64_digits17he8a5a435523ef75eE, symObjAddr: 0x6B1C8, symBinAddr: 0x6CC40, symSize: 0x70 }
  - { offsetInCU: 0xB6, offset: 0xC0D17, size: 0x8, addend: 0x0, symName: __ZN6memchr6memchr8fallback6memchr17hb6d64473a11bd1f7E, symObjAddr: 0x6B028, symBinAddr: 0x6CAA0, symSize: 0x1A0 }
  - { offsetInCU: 0x1F, offset: 0xC0FE7, size: 0x8, addend: 0x0, symName: ___rust_panic_cleanup, symObjAddr: 0x6B6CC, symBinAddr: 0x6D144, symSize: 0x20 }
  - { offsetInCU: 0x27, offset: 0xC0FEF, size: 0x8, addend: 0x0, symName: __ZN11parking_lot9raw_mutex8RawMutex11unlock_slow17h1ce24434bad7003bE, symObjAddr: 0x6B704, symBinAddr: 0x1D2D94, symSize: 0x378 }
  - { offsetInCU: 0x37, offset: 0xC0FFF, size: 0x8, addend: 0x0, symName: ___rust_panic_cleanup, symObjAddr: 0x6B6CC, symBinAddr: 0x6D144, symSize: 0x20 }
  - { offsetInCU: 0x3F, offset: 0xC1007, size: 0x8, addend: 0x0, symName: ___rust_start_panic, symObjAddr: 0x6B6EC, symBinAddr: 0x6D164, symSize: 0xC }
  - { offsetInCU: 0x54, offset: 0xC101C, size: 0x8, addend: 0x0, symName: ___rust_start_panic, symObjAddr: 0x6B6EC, symBinAddr: 0x6D164, symSize: 0xC }
  - { offsetInCU: 0x5C, offset: 0xC1024, size: 0x8, addend: 0x0, symName: __ZN11panic_abort18__rust_start_panic5abort17h07d38faa090f35b5E, symObjAddr: 0x6B6F8, symBinAddr: 0x6D170, symSize: 0xC }
  - { offsetInCU: 0x77, offset: 0xC103F, size: 0x8, addend: 0x0, symName: __ZN11panic_abort18__rust_start_panic5abort17h07d38faa090f35b5E, symObjAddr: 0x6B6F8, symBinAddr: 0x6D170, symSize: 0xC }
  - { offsetInCU: 0x7F, offset: 0xC1047, size: 0x8, addend: 0x0, symName: __ZN11parking_lot9raw_mutex8RawMutex11unlock_slow17h1ce24434bad7003bE, symObjAddr: 0x6B704, symBinAddr: 0x1D2D94, symSize: 0x378 }
  - { offsetInCU: 0x1F, offset: 0xC1080, size: 0x8, addend: 0x0, symName: '__ZN81_$LT$core..str..pattern..CharSearcher$u20$as$u20$core..str..pattern..Searcher$GT$10next_match17ha7b79326ce683e3eE', symObjAddr: 0x6CCF4, symBinAddr: 0x6D920, symSize: 0x314 }
  - { offsetInCU: 0x27, offset: 0xC1088, size: 0x8, addend: 0x0, symName: __ZN3ryu6pretty8format6417hb046dffd4560848dE, symObjAddr: 0x73950, symBinAddr: 0x7457C, symSize: 0x938 }
  - { offsetInCU: 0x5AD, offset: 0xC160E, size: 0x8, addend: 0x0, symName: '__ZN81_$LT$core..str..pattern..CharSearcher$u20$as$u20$core..str..pattern..Searcher$GT$10next_match17ha7b79326ce683e3eE', symObjAddr: 0x6CCF4, symBinAddr: 0x6D920, symSize: 0x314 }
  - { offsetInCU: 0x5B5, offset: 0xC1616, size: 0x8, addend: 0x0, symName: '__ZN4core3ptr52drop_in_place$LT$core..num..error..ParseIntError$GT$17hdd9e507a185eafdfE', symObjAddr: 0x6D008, symBinAddr: 0x6DC34, symSize: 0x4 }
  - { offsetInCU: 0xA1D, offset: 0xC1A7E, size: 0x8, addend: 0x0, symName: '__ZN80_$LT$core..str..pattern..StrSearcher$u20$as$u20$core..str..pattern..Searcher$GT$4next17he4f141d7d1a8ed87E', symObjAddr: 0x708C0, symBinAddr: 0x714EC, symSize: 0x4D0 }
  - { offsetInCU: 0xA25, offset: 0xC1A86, size: 0x8, addend: 0x0, symName: __ZN14rustc_demangle2v07Printer9in_binder17h948c686d45fbd7c7E, symObjAddr: 0x70D90, symBinAddr: 0x719BC, symSize: 0x254 }
  - { offsetInCU: 0x13B8, offset: 0xC2419, size: 0x8, addend: 0x0, symName: '__ZN81_$LT$core..str..iter..Chars$u20$as$u20$core..iter..traits..iterator..Iterator$GT$5count17h185d694799151f99E', symObjAddr: 0x70584, symBinAddr: 0x711B0, symSize: 0xF0 }
  - { offsetInCU: 0x13C0, offset: 0xC2421, size: 0x8, addend: 0x0, symName: '__ZN50_$LT$$RF$mut$u20$T$u20$as$u20$core..fmt..Debug$GT$3fmt17hda63d4b2908ebab5E', symObjAddr: 0x70674, symBinAddr: 0x712A0, symSize: 0xB0 }
  - { offsetInCU: 0x13DC, offset: 0xC243D, size: 0x8, addend: 0x0, symName: '__ZN81_$LT$core..str..iter..Chars$u20$as$u20$core..iter..traits..iterator..Iterator$GT$5count17h185d694799151f99E', symObjAddr: 0x70584, symBinAddr: 0x711B0, symSize: 0xF0 }
  - { offsetInCU: 0x13F5, offset: 0xC2456, size: 0x8, addend: 0x0, symName: '__ZN81_$LT$core..str..iter..Chars$u20$as$u20$core..iter..traits..iterator..Iterator$GT$5count17h185d694799151f99E', symObjAddr: 0x70584, symBinAddr: 0x711B0, symSize: 0xF0 }
  - { offsetInCU: 0x140E, offset: 0xC246F, size: 0x8, addend: 0x0, symName: '__ZN81_$LT$core..str..iter..Chars$u20$as$u20$core..iter..traits..iterator..Iterator$GT$5count17h185d694799151f99E', symObjAddr: 0x70584, symBinAddr: 0x711B0, symSize: 0xF0 }
  - { offsetInCU: 0x1427, offset: 0xC2488, size: 0x8, addend: 0x0, symName: '__ZN81_$LT$core..str..iter..Chars$u20$as$u20$core..iter..traits..iterator..Iterator$GT$5count17h185d694799151f99E', symObjAddr: 0x70584, symBinAddr: 0x711B0, symSize: 0xF0 }
  - { offsetInCU: 0x1440, offset: 0xC24A1, size: 0x8, addend: 0x0, symName: '__ZN81_$LT$core..str..iter..Chars$u20$as$u20$core..iter..traits..iterator..Iterator$GT$5count17h185d694799151f99E', symObjAddr: 0x70584, symBinAddr: 0x711B0, symSize: 0xF0 }
  - { offsetInCU: 0x1695, offset: 0xC26F6, size: 0x8, addend: 0x0, symName: '__ZN4core3ptr52drop_in_place$LT$core..num..error..ParseIntError$GT$17hdd9e507a185eafdfE', symObjAddr: 0x6D008, symBinAddr: 0x6DC34, symSize: 0x4 }
  - { offsetInCU: 0x169D, offset: 0xC26FE, size: 0x8, addend: 0x0, symName: __ZN14rustc_demangle2v07Printer10print_path17h33e0d274922f4a16E, symObjAddr: 0x6D00C, symBinAddr: 0x6DC38, symSize: 0x65C }
  - { offsetInCU: 0x1B1D, offset: 0xC2B7E, size: 0x8, addend: 0x0, symName: '__ZN44_$LT$$RF$T$u20$as$u20$core..fmt..Display$GT$3fmt17hef4e50a622442badE', symObjAddr: 0x72B88, symBinAddr: 0x737B4, symSize: 0xC18 }
  - { offsetInCU: 0x1B25, offset: 0xC2B86, size: 0x8, addend: 0x0, symName: '__ZN71_$LT$rustc_demangle..SizeLimitExhausted$u20$as$u20$core..fmt..Debug$GT$3fmt17hb0297ec3bd84c244E', symObjAddr: 0x737A0, symBinAddr: 0x743CC, symSize: 0x18 }
  - { offsetInCU: 0x344C, offset: 0xC44AD, size: 0x8, addend: 0x0, symName: '__ZN50_$LT$$RF$mut$u20$W$u20$as$u20$core..fmt..Write$GT$9write_str17h26d591dc15744e49E', symObjAddr: 0x737B8, symBinAddr: 0x743E4, symSize: 0x48 }
  - { offsetInCU: 0x3454, offset: 0xC44B5, size: 0x8, addend: 0x0, symName: '__ZN50_$LT$$RF$mut$u20$W$u20$as$u20$core..fmt..Write$GT$10write_char17h6a7dc840062dfd43E', symObjAddr: 0x73800, symBinAddr: 0x7442C, symSize: 0x11C }
  - { offsetInCU: 0x34E4, offset: 0xC4545, size: 0x8, addend: 0x0, symName: '__ZN50_$LT$$RF$mut$u20$W$u20$as$u20$core..fmt..Write$GT$10write_char17h6a7dc840062dfd43E', symObjAddr: 0x73800, symBinAddr: 0x7442C, symSize: 0x11C }
  - { offsetInCU: 0x3502, offset: 0xC4563, size: 0x8, addend: 0x0, symName: '__ZN50_$LT$$RF$mut$u20$W$u20$as$u20$core..fmt..Write$GT$10write_char17h6a7dc840062dfd43E', symObjAddr: 0x73800, symBinAddr: 0x7442C, symSize: 0x11C }
  - { offsetInCU: 0x3512, offset: 0xC4573, size: 0x8, addend: 0x0, symName: '__ZN50_$LT$$RF$mut$u20$W$u20$as$u20$core..fmt..Write$GT$10write_char17h6a7dc840062dfd43E', symObjAddr: 0x73800, symBinAddr: 0x7442C, symSize: 0x11C }
  - { offsetInCU: 0x351A, offset: 0xC457B, size: 0x8, addend: 0x0, symName: '__ZN50_$LT$$RF$mut$u20$W$u20$as$u20$core..fmt..Write$GT$9write_fmt17h6e673768a232313fE', symObjAddr: 0x7391C, symBinAddr: 0x74548, symSize: 0x34 }
  - { offsetInCU: 0x361C, offset: 0xC467D, size: 0x8, addend: 0x0, symName: '__ZN50_$LT$$RF$mut$u20$W$u20$as$u20$core..fmt..Write$GT$9write_fmt17h6e673768a232313fE', symObjAddr: 0x7391C, symBinAddr: 0x74548, symSize: 0x34 }
  - { offsetInCU: 0x3624, offset: 0xC4685, size: 0x8, addend: 0x0, symName: __ZN3ryu6pretty8format6417hb046dffd4560848dE, symObjAddr: 0x73950, symBinAddr: 0x7457C, symSize: 0x938 }
  - { offsetInCU: 0x3682, offset: 0xC46E3, size: 0x8, addend: 0x0, symName: '__ZN45_$LT$$LP$$RP$$u20$as$u20$core..fmt..Debug$GT$3fmt17h50bfc47ee51dffcfE.1247', symObjAddr: 0x70570, symBinAddr: 0x7119C, symSize: 0x14 }
  - { offsetInCU: 0x368A, offset: 0xC46EB, size: 0x8, addend: 0x0, symName: '__ZN81_$LT$core..str..iter..Chars$u20$as$u20$core..iter..traits..iterator..Iterator$GT$5count17h185d694799151f99E', symObjAddr: 0x70584, symBinAddr: 0x711B0, symSize: 0xF0 }
  - { offsetInCU: 0x36DD, offset: 0xC473E, size: 0x8, addend: 0x0, symName: '__ZN50_$LT$$RF$mut$u20$T$u20$as$u20$core..fmt..Debug$GT$3fmt17hda63d4b2908ebab5E', symObjAddr: 0x70674, symBinAddr: 0x712A0, symSize: 0xB0 }
  - { offsetInCU: 0x36E5, offset: 0xC4746, size: 0x8, addend: 0x0, symName: '__ZN42_$LT$$RF$T$u20$as$u20$core..fmt..Debug$GT$3fmt17h1838ee79f81f3a17E', symObjAddr: 0x70724, symBinAddr: 0x71350, symSize: 0x14 }
  - { offsetInCU: 0x387C, offset: 0xC48DD, size: 0x8, addend: 0x0, symName: '__ZN42_$LT$$RF$T$u20$as$u20$core..fmt..Debug$GT$3fmt17h1838ee79f81f3a17E', symObjAddr: 0x70724, symBinAddr: 0x71350, symSize: 0x14 }
  - { offsetInCU: 0x3884, offset: 0xC48E5, size: 0x8, addend: 0x0, symName: '__ZN42_$LT$$RF$T$u20$as$u20$core..fmt..Debug$GT$3fmt17h2a77c24693597974E', symObjAddr: 0x70738, symBinAddr: 0x71364, symSize: 0x188 }
  - { offsetInCU: 0x389D, offset: 0xC48FE, size: 0x8, addend: 0x0, symName: '__ZN42_$LT$$RF$T$u20$as$u20$core..fmt..Debug$GT$3fmt17h2a77c24693597974E', symObjAddr: 0x70738, symBinAddr: 0x71364, symSize: 0x188 }
  - { offsetInCU: 0x38A5, offset: 0xC4906, size: 0x8, addend: 0x0, symName: '__ZN80_$LT$core..str..pattern..StrSearcher$u20$as$u20$core..str..pattern..Searcher$GT$4next17he4f141d7d1a8ed87E', symObjAddr: 0x708C0, symBinAddr: 0x714EC, symSize: 0x4D0 }
  - { offsetInCU: 0x4537, offset: 0xC5598, size: 0x8, addend: 0x0, symName: '__ZN104_$LT$core..iter..sources..from_fn..FromFn$LT$F$GT$$u20$as$u20$core..iter..traits..iterator..Iterator$GT$4next17h1911eb044cbda969E', symObjAddr: 0x6FE38, symBinAddr: 0x70A64, symSize: 0x434 }
  - { offsetInCU: 0x453F, offset: 0xC55A0, size: 0x8, addend: 0x0, symName: '__ZN4core4char7methods22_$LT$impl$u20$char$GT$16escape_debug_ext17h9170ffbb2058bcf3E.1246', symObjAddr: 0x7026C, symBinAddr: 0x70E98, symSize: 0x304 }
  - { offsetInCU: 0x4C62, offset: 0xC5CC3, size: 0x8, addend: 0x0, symName: '__ZN4core4char7methods22_$LT$impl$u20$char$GT$16escape_debug_ext17h9170ffbb2058bcf3E.1246', symObjAddr: 0x7026C, symBinAddr: 0x70E98, symSize: 0x304 }
  - { offsetInCU: 0x4C6A, offset: 0xC5CCB, size: 0x8, addend: 0x0, symName: '__ZN45_$LT$$LP$$RP$$u20$as$u20$core..fmt..Debug$GT$3fmt17h50bfc47ee51dffcfE.1247', symObjAddr: 0x70570, symBinAddr: 0x7119C, symSize: 0x14 }
  - { offsetInCU: 0x4DE1, offset: 0xC5E42, size: 0x8, addend: 0x0, symName: '__ZN45_$LT$$LP$$RP$$u20$as$u20$core..fmt..Debug$GT$3fmt17h50bfc47ee51dffcfE.1247', symObjAddr: 0x70570, symBinAddr: 0x7119C, symSize: 0x14 }
  - { offsetInCU: 0x4FA2, offset: 0xC6003, size: 0x8, addend: 0x0, symName: __ZN14rustc_demangle2v06Parser13disambiguator17hea8d836df5d898ffE, symObjAddr: 0x6D83C, symBinAddr: 0x6E468, symSize: 0x110 }
  - { offsetInCU: 0x4FAA, offset: 0xC600B, size: 0x8, addend: 0x0, symName: __ZN14rustc_demangle2v06Parser5ident17h8f9e5f986af3e17aE, symObjAddr: 0x6D94C, symBinAddr: 0x6E578, symSize: 0x258 }
  - { offsetInCU: 0x4FCD, offset: 0xC602E, size: 0x8, addend: 0x0, symName: __ZN14rustc_demangle2v06Parser13disambiguator17hea8d836df5d898ffE, symObjAddr: 0x6D83C, symBinAddr: 0x6E468, symSize: 0x110 }
  - { offsetInCU: 0x4FE7, offset: 0xC6048, size: 0x8, addend: 0x0, symName: __ZN14rustc_demangle2v06Parser13disambiguator17hea8d836df5d898ffE, symObjAddr: 0x6D83C, symBinAddr: 0x6E468, symSize: 0x110 }
  - { offsetInCU: 0x51E8, offset: 0xC6249, size: 0x8, addend: 0x0, symName: __ZN14rustc_demangle2v06Parser5ident17h8f9e5f986af3e17aE, symObjAddr: 0x6D94C, symBinAddr: 0x6E578, symSize: 0x258 }
  - { offsetInCU: 0x51F0, offset: 0xC6251, size: 0x8, addend: 0x0, symName: '__ZN64_$LT$rustc_demangle..v0..Ident$u20$as$u20$core..fmt..Display$GT$3fmt17h68317a243b945341E', symObjAddr: 0x6DBA4, symBinAddr: 0x6E7D0, symSize: 0x484 }
  - { offsetInCU: 0x56E2, offset: 0xC6743, size: 0x8, addend: 0x0, symName: __ZN14rustc_demangle2v06Parser9namespace17h71b468806661d95dE, symObjAddr: 0x6E028, symBinAddr: 0x6EC54, symSize: 0x54 }
  - { offsetInCU: 0x56EA, offset: 0xC674B, size: 0x8, addend: 0x0, symName: __ZN14rustc_demangle2v07Printer10print_type17h6091bc2d92b7907bE, symObjAddr: 0x6E07C, symBinAddr: 0x6ECA8, symSize: 0x4A4 }
  - { offsetInCU: 0x5715, offset: 0xC6776, size: 0x8, addend: 0x0, symName: __ZN14rustc_demangle2v06Parser9namespace17h71b468806661d95dE, symObjAddr: 0x6E028, symBinAddr: 0x6EC54, symSize: 0x54 }
  - { offsetInCU: 0x5780, offset: 0xC67E1, size: 0x8, addend: 0x0, symName: __ZN14rustc_demangle2v06Parser11hex_nibbles17h2586f7505245da0cE, symObjAddr: 0x6F430, symBinAddr: 0x7005C, symSize: 0x98 }
  - { offsetInCU: 0x5788, offset: 0xC67E9, size: 0x8, addend: 0x0, symName: __ZN14rustc_demangle2v010HexNibbles14try_parse_uint17h44aef95a5873fa39E, symObjAddr: 0x6F4C8, symBinAddr: 0x700F4, symSize: 0x198 }
  - { offsetInCU: 0x586C, offset: 0xC68CD, size: 0x8, addend: 0x0, symName: __ZN14rustc_demangle2v06Parser10integer_6217ha8b2c83eab6bd905E, symObjAddr: 0x711B0, symBinAddr: 0x71DDC, symSize: 0xEC }
  - { offsetInCU: 0x5874, offset: 0xC68D5, size: 0x8, addend: 0x0, symName: __ZN14rustc_demangle2v07Printer14print_sep_list17h3ff0460649513d57E, symObjAddr: 0x7129C, symBinAddr: 0x71EC8, symSize: 0xB0 }
  - { offsetInCU: 0x5889, offset: 0xC68EA, size: 0x8, addend: 0x0, symName: __ZN14rustc_demangle2v06Parser10integer_6217ha8b2c83eab6bd905E, symObjAddr: 0x711B0, symBinAddr: 0x71DDC, symSize: 0xEC }
  - { offsetInCU: 0x58A3, offset: 0xC6904, size: 0x8, addend: 0x0, symName: __ZN14rustc_demangle2v06Parser10integer_6217ha8b2c83eab6bd905E, symObjAddr: 0x711B0, symBinAddr: 0x71DDC, symSize: 0xEC }
  - { offsetInCU: 0x5A1E, offset: 0xC6A7F, size: 0x8, addend: 0x0, symName: __ZN14rustc_demangle2v07Printer10print_path17h33e0d274922f4a16E, symObjAddr: 0x6D00C, symBinAddr: 0x6DC38, symSize: 0x65C }
  - { offsetInCU: 0x5A26, offset: 0xC6A87, size: 0x8, addend: 0x0, symName: __ZN14rustc_demangle2v07Printer13print_backref17h7f4f10c2db7d7119E, symObjAddr: 0x6D668, symBinAddr: 0x6E294, symSize: 0x1D4 }
  - { offsetInCU: 0x635C, offset: 0xC73BD, size: 0x8, addend: 0x0, symName: __ZN14rustc_demangle2v07Printer13print_backref17h7f4f10c2db7d7119E, symObjAddr: 0x6D668, symBinAddr: 0x6E294, symSize: 0x1D4 }
  - { offsetInCU: 0x6364, offset: 0xC73C5, size: 0x8, addend: 0x0, symName: __ZN14rustc_demangle2v06Parser13disambiguator17hea8d836df5d898ffE, symObjAddr: 0x6D83C, symBinAddr: 0x6E468, symSize: 0x110 }
  - { offsetInCU: 0x6675, offset: 0xC76D6, size: 0x8, addend: 0x0, symName: __ZN14rustc_demangle2v07Printer10print_type17h6091bc2d92b7907bE, symObjAddr: 0x6E07C, symBinAddr: 0x6ECA8, symSize: 0x4A4 }
  - { offsetInCU: 0x667D, offset: 0xC76DE, size: 0x8, addend: 0x0, symName: __ZN14rustc_demangle2v07Printer14print_sep_list17h34319fc13dc4daaaE, symObjAddr: 0x6E520, symBinAddr: 0x6F14C, symSize: 0xA0 }
  - { offsetInCU: 0x6EA2, offset: 0xC7F03, size: 0x8, addend: 0x0, symName: __ZN14rustc_demangle2v07Printer14print_sep_list17h34319fc13dc4daaaE, symObjAddr: 0x6E520, symBinAddr: 0x6F14C, symSize: 0xA0 }
  - { offsetInCU: 0x6EAA, offset: 0xC7F0B, size: 0x8, addend: 0x0, symName: __ZN14rustc_demangle2v07Printer17print_generic_arg17h1b74d0bebeb4b0efE, symObjAddr: 0x6E5C0, symBinAddr: 0x6F1EC, symSize: 0x160 }
  - { offsetInCU: 0x6FDC, offset: 0xC803D, size: 0x8, addend: 0x0, symName: __ZN14rustc_demangle2v07Printer17print_generic_arg17h1b74d0bebeb4b0efE, symObjAddr: 0x6E5C0, symBinAddr: 0x6F1EC, symSize: 0x160 }
  - { offsetInCU: 0x6FE4, offset: 0xC8045, size: 0x8, addend: 0x0, symName: __ZN14rustc_demangle2v07Printer11print_const17h4212b887921730b7E, symObjAddr: 0x6E720, symBinAddr: 0x6F34C, symSize: 0x63C }
  - { offsetInCU: 0x72ED, offset: 0xC834E, size: 0x8, addend: 0x0, symName: __ZN14rustc_demangle2v07Printer11print_const17h4212b887921730b7E, symObjAddr: 0x6E720, symBinAddr: 0x6F34C, symSize: 0x63C }
  - { offsetInCU: 0x72F5, offset: 0xC8356, size: 0x8, addend: 0x0, symName: __ZN14rustc_demangle2v07Printer25print_lifetime_from_index17h4d772dbe3d9d7f65E, symObjAddr: 0x6ED5C, symBinAddr: 0x6F988, symSize: 0x224 }
  - { offsetInCU: 0x7CCE, offset: 0xC8D2F, size: 0x8, addend: 0x0, symName: __ZN14rustc_demangle2v07Printer25print_lifetime_from_index17h4d772dbe3d9d7f65E, symObjAddr: 0x6ED5C, symBinAddr: 0x6F988, symSize: 0x224 }
  - { offsetInCU: 0x7CD6, offset: 0xC8D37, size: 0x8, addend: 0x0, symName: __ZN14rustc_demangle2v07Printer16print_const_uint17h0684bbc1199f99e1E, symObjAddr: 0x6EF80, symBinAddr: 0x6FBAC, symSize: 0x2DC }
  - { offsetInCU: 0x7ECE, offset: 0xC8F2F, size: 0x8, addend: 0x0, symName: __ZN14rustc_demangle2v07Printer16print_const_uint17h0684bbc1199f99e1E, symObjAddr: 0x6EF80, symBinAddr: 0x6FBAC, symSize: 0x2DC }
  - { offsetInCU: 0x7EEC, offset: 0xC8F4D, size: 0x8, addend: 0x0, symName: __ZN14rustc_demangle2v07Printer16print_const_uint17h0684bbc1199f99e1E, symObjAddr: 0x6EF80, symBinAddr: 0x6FBAC, symSize: 0x2DC }
  - { offsetInCU: 0x7F0A, offset: 0xC8F6B, size: 0x8, addend: 0x0, symName: __ZN14rustc_demangle2v07Printer16print_const_uint17h0684bbc1199f99e1E, symObjAddr: 0x6EF80, symBinAddr: 0x6FBAC, symSize: 0x2DC }
  - { offsetInCU: 0x7FB0, offset: 0xC9011, size: 0x8, addend: 0x0, symName: __ZN14rustc_demangle2v07Printer16print_const_uint17h0684bbc1199f99e1E, symObjAddr: 0x6EF80, symBinAddr: 0x6FBAC, symSize: 0x2DC }
  - { offsetInCU: 0x7FB8, offset: 0xC9019, size: 0x8, addend: 0x0, symName: __ZN14rustc_demangle2v07Printer13print_backref17hc64cc92cbc95e5ecE, symObjAddr: 0x6F25C, symBinAddr: 0x6FE88, symSize: 0x1D4 }
  - { offsetInCU: 0x82F1, offset: 0xC9352, size: 0x8, addend: 0x0, symName: __ZN14rustc_demangle2v07Printer13print_backref17hc64cc92cbc95e5ecE, symObjAddr: 0x6F25C, symBinAddr: 0x6FE88, symSize: 0x1D4 }
  - { offsetInCU: 0x8354, offset: 0xC93B5, size: 0x8, addend: 0x0, symName: __ZN14rustc_demangle2v07Printer13print_backref17hc64cc92cbc95e5ecE, symObjAddr: 0x6F25C, symBinAddr: 0x6FE88, symSize: 0x1D4 }
  - { offsetInCU: 0x835C, offset: 0xC93BD, size: 0x8, addend: 0x0, symName: __ZN14rustc_demangle2v06Parser11hex_nibbles17h2586f7505245da0cE, symObjAddr: 0x6F430, symBinAddr: 0x7005C, symSize: 0x98 }
  - { offsetInCU: 0x865E, offset: 0xC96BF, size: 0x8, addend: 0x0, symName: __ZN14rustc_demangle2v07Printer26print_quoted_escaped_chars17he534a482f37129dbE, symObjAddr: 0x6F660, symBinAddr: 0x7028C, symSize: 0x140 }
  - { offsetInCU: 0x8666, offset: 0xC96C7, size: 0x8, addend: 0x0, symName: __ZN14rustc_demangle2v07Printer23print_const_str_literal17h53053ed3d016992eE, symObjAddr: 0x6F7A0, symBinAddr: 0x703CC, symSize: 0x2B0 }
  - { offsetInCU: 0x8889, offset: 0xC98EA, size: 0x8, addend: 0x0, symName: __ZN14rustc_demangle2v07Printer23print_const_str_literal17h53053ed3d016992eE, symObjAddr: 0x6F7A0, symBinAddr: 0x703CC, symSize: 0x2B0 }
  - { offsetInCU: 0x8891, offset: 0xC98F2, size: 0x8, addend: 0x0, symName: __ZN14rustc_demangle2v07Printer14print_sep_list17h59681b2595b1ec94E, symObjAddr: 0x6FA50, symBinAddr: 0x7067C, symSize: 0xA4 }
  - { offsetInCU: 0x8D6F, offset: 0xC9DD0, size: 0x8, addend: 0x0, symName: __ZN14rustc_demangle2v07Printer14print_sep_list17h59681b2595b1ec94E, symObjAddr: 0x6FA50, symBinAddr: 0x7067C, symSize: 0xA4 }
  - { offsetInCU: 0x8D77, offset: 0xC9DD8, size: 0x8, addend: 0x0, symName: __ZN14rustc_demangle2v07Printer14print_sep_list17hfba283fda45d50adE, symObjAddr: 0x6FAF4, symBinAddr: 0x70720, symSize: 0xB4 }
  - { offsetInCU: 0x8EB2, offset: 0xC9F13, size: 0x8, addend: 0x0, symName: __ZN14rustc_demangle2v07Printer14print_sep_list17hfba283fda45d50adE, symObjAddr: 0x6FAF4, symBinAddr: 0x70720, symSize: 0xB4 }
  - { offsetInCU: 0x8EBA, offset: 0xC9F1B, size: 0x8, addend: 0x0, symName: __ZN14rustc_demangle2v07Printer14print_sep_list17h8de681628dcd105eE, symObjAddr: 0x6FBA8, symBinAddr: 0x707D4, symSize: 0x290 }
  - { offsetInCU: 0x8FF5, offset: 0xCA056, size: 0x8, addend: 0x0, symName: __ZN14rustc_demangle2v07Printer14print_sep_list17h8de681628dcd105eE, symObjAddr: 0x6FBA8, symBinAddr: 0x707D4, symSize: 0x290 }
  - { offsetInCU: 0x8FFD, offset: 0xCA05E, size: 0x8, addend: 0x0, symName: '__ZN104_$LT$core..iter..sources..from_fn..FromFn$LT$F$GT$$u20$as$u20$core..iter..traits..iterator..Iterator$GT$4next17h1911eb044cbda969E', symObjAddr: 0x6FE38, symBinAddr: 0x70A64, symSize: 0x434 }
  - { offsetInCU: 0x9431, offset: 0xCA492, size: 0x8, addend: 0x0, symName: __ZN14rustc_demangle2v07Printer9in_binder17h948c686d45fbd7c7E, symObjAddr: 0x70D90, symBinAddr: 0x719BC, symSize: 0x254 }
  - { offsetInCU: 0x9439, offset: 0xCA49A, size: 0x8, addend: 0x0, symName: __ZN14rustc_demangle2v07Printer13print_backref17h12709fc54ac8c118E, symObjAddr: 0x70FE4, symBinAddr: 0x71C10, symSize: 0x1CC }
  - { offsetInCU: 0x98E1, offset: 0xCA942, size: 0x8, addend: 0x0, symName: __ZN14rustc_demangle2v07Printer13print_backref17h12709fc54ac8c118E, symObjAddr: 0x70FE4, symBinAddr: 0x71C10, symSize: 0x1CC }
  - { offsetInCU: 0x98E9, offset: 0xCA94A, size: 0x8, addend: 0x0, symName: __ZN14rustc_demangle2v06Parser10integer_6217ha8b2c83eab6bd905E, symObjAddr: 0x711B0, symBinAddr: 0x71DDC, symSize: 0xEC }
  - { offsetInCU: 0x9BEB, offset: 0xCAC4C, size: 0x8, addend: 0x0, symName: __ZN14rustc_demangle2v07Printer14print_sep_list17h3ff0460649513d57E, symObjAddr: 0x7129C, symBinAddr: 0x71EC8, symSize: 0xB0 }
  - { offsetInCU: 0x9BF3, offset: 0xCAC54, size: 0x8, addend: 0x0, symName: __ZN14rustc_demangle2v07Printer9in_binder17hebceedd4c3ec9758E, symObjAddr: 0x7134C, symBinAddr: 0x71F78, symSize: 0x310 }
  - { offsetInCU: 0x9D34, offset: 0xCAD95, size: 0x8, addend: 0x0, symName: __ZN14rustc_demangle2v07Printer9in_binder17hebceedd4c3ec9758E, symObjAddr: 0x7134C, symBinAddr: 0x71F78, symSize: 0x310 }
  - { offsetInCU: 0x9D3C, offset: 0xCAD9D, size: 0x8, addend: 0x0, symName: __ZN14rustc_demangle2v07Printer15print_dyn_trait17h106d1c43eb2f123aE, symObjAddr: 0x7165C, symBinAddr: 0x72288, symSize: 0x268 }
  - { offsetInCU: 0xA486, offset: 0xCB4E7, size: 0x8, addend: 0x0, symName: __ZN14rustc_demangle2v07Printer15print_dyn_trait17h106d1c43eb2f123aE, symObjAddr: 0x7165C, symBinAddr: 0x72288, symSize: 0x268 }
  - { offsetInCU: 0xA48E, offset: 0xCB4EF, size: 0x8, addend: 0x0, symName: __ZN14rustc_demangle2v07Printer30print_path_maybe_open_generics17hf250751840620440E, symObjAddr: 0x718C4, symBinAddr: 0x724F0, symSize: 0x288 }
  - { offsetInCU: 0xA74D, offset: 0xCB7AE, size: 0x8, addend: 0x0, symName: __ZN14rustc_demangle2v07Printer30print_path_maybe_open_generics17hf250751840620440E, symObjAddr: 0x718C4, symBinAddr: 0x724F0, symSize: 0x288 }
  - { offsetInCU: 0xA755, offset: 0xCB7B6, size: 0x8, addend: 0x0, symName: '__ZN14rustc_demangle2v07Printer10print_type28_$u7b$$u7b$closure$u7d$$u7d$17hb86fed1f32bae20eE', symObjAddr: 0x71B4C, symBinAddr: 0x72778, symSize: 0x488 }
  - { offsetInCU: 0xAD6C, offset: 0xCBDCD, size: 0x8, addend: 0x0, symName: '__ZN14rustc_demangle2v07Printer10print_type28_$u7b$$u7b$closure$u7d$$u7d$17hb86fed1f32bae20eE', symObjAddr: 0x71B4C, symBinAddr: 0x72778, symSize: 0x488 }
  - { offsetInCU: 0xAD74, offset: 0xCBDD5, size: 0x8, addend: 0x0, symName: __ZN14rustc_demangle12try_demangle17h35a91331b1e28af2E, symObjAddr: 0x71FD4, symBinAddr: 0x72C00, symSize: 0xBB4 }
  - { offsetInCU: 0xB349, offset: 0xCC3AA, size: 0x8, addend: 0x0, symName: __ZN14rustc_demangle12try_demangle17h35a91331b1e28af2E, symObjAddr: 0x71FD4, symBinAddr: 0x72C00, symSize: 0xBB4 }
  - { offsetInCU: 0xB7BB, offset: 0xCC81C, size: 0x8, addend: 0x0, symName: '__ZN64_$LT$rustc_demangle..v0..Ident$u20$as$u20$core..fmt..Display$GT$3fmt17h68317a243b945341E', symObjAddr: 0x6DBA4, symBinAddr: 0x6E7D0, symSize: 0x484 }
  - { offsetInCU: 0xB7C3, offset: 0xCC824, size: 0x8, addend: 0x0, symName: __ZN14rustc_demangle2v06Parser9namespace17h71b468806661d95dE, symObjAddr: 0x6E028, symBinAddr: 0x6EC54, symSize: 0x54 }
  - { offsetInCU: 0xBD13, offset: 0xCCD74, size: 0x8, addend: 0x0, symName: __ZN14rustc_demangle2v010HexNibbles14try_parse_uint17h44aef95a5873fa39E, symObjAddr: 0x6F4C8, symBinAddr: 0x700F4, symSize: 0x198 }
  - { offsetInCU: 0xBD1B, offset: 0xCCD7C, size: 0x8, addend: 0x0, symName: __ZN14rustc_demangle2v07Printer26print_quoted_escaped_chars17he534a482f37129dbE, symObjAddr: 0x6F660, symBinAddr: 0x7028C, symSize: 0x140 }
  - { offsetInCU: 0xBE73, offset: 0xCCED4, size: 0x8, addend: 0x0, symName: __ZN14rustc_demangle2v07Printer26print_quoted_escaped_chars17he534a482f37129dbE, symObjAddr: 0x6F660, symBinAddr: 0x7028C, symSize: 0x140 }
  - { offsetInCU: 0xC018, offset: 0xCD079, size: 0x8, addend: 0x0, symName: __ZN14rustc_demangle12try_demangle17h35a91331b1e28af2E, symObjAddr: 0x71FD4, symBinAddr: 0x72C00, symSize: 0xBB4 }
  - { offsetInCU: 0xC020, offset: 0xCD081, size: 0x8, addend: 0x0, symName: '__ZN44_$LT$$RF$T$u20$as$u20$core..fmt..Display$GT$3fmt17hef4e50a622442badE', symObjAddr: 0x72B88, symBinAddr: 0x737B4, symSize: 0xC18 }
  - { offsetInCU: 0xD26B, offset: 0xCE2CC, size: 0x8, addend: 0x0, symName: '__ZN71_$LT$rustc_demangle..SizeLimitExhausted$u20$as$u20$core..fmt..Debug$GT$3fmt17hb0297ec3bd84c244E', symObjAddr: 0x737A0, symBinAddr: 0x743CC, symSize: 0x18 }
  - { offsetInCU: 0xD273, offset: 0xCE2D4, size: 0x8, addend: 0x0, symName: '__ZN50_$LT$$RF$mut$u20$W$u20$as$u20$core..fmt..Write$GT$9write_str17h26d591dc15744e49E', symObjAddr: 0x737B8, symBinAddr: 0x743E4, symSize: 0x48 }
  - { offsetInCU: 0xD295, offset: 0xCE2F6, size: 0x8, addend: 0x0, symName: '__ZN71_$LT$rustc_demangle..SizeLimitExhausted$u20$as$u20$core..fmt..Debug$GT$3fmt17hb0297ec3bd84c244E', symObjAddr: 0x737A0, symBinAddr: 0x743CC, symSize: 0x18 }
  - { offsetInCU: 0xD29D, offset: 0xCE2FE, size: 0x8, addend: 0x0, symName: '__ZN50_$LT$$RF$mut$u20$W$u20$as$u20$core..fmt..Write$GT$9write_str17h26d591dc15744e49E', symObjAddr: 0x737B8, symBinAddr: 0x743E4, symSize: 0x48 }
...
